Archive member included to satisfy reference by file (symbol)

arch/arm/lib/lib.a(lib1funcs.o)
                              cmd/built-in.o (__aeabi_uidiv)
arch/arm/lib/lib.a(div0.o)    arch/arm/lib/lib.a(lib1funcs.o) (__div0)

Discarded input sections

 .data          0x0000000000000000        0x0 arch/arm/cpu/armv7/start.o
 .bss           0x0000000000000000        0x0 arch/arm/cpu/armv7/start.o
 .text.v7_arch_cp15_set_l2aux_ctrl
                0x0000000000000000        0x8 arch/arm/cpu/armv7/built-in.o
 .text.v7_arch_cp15_set_acr
                0x0000000000000000        0x8 arch/arm/cpu/armv7/built-in.o
 .text.sdelay   0x0000000000000000        0xc arch/arm/cpu/armv7/built-in.o
 .text.wait_on_value
                0x0000000000000000       0x38 arch/arm/cpu/armv7/built-in.o
 .data          0x0000000000000000        0x0 arch/arm/cpu/armv7/built-in.o
 .bss           0x0000000000000000        0x0 arch/arm/cpu/armv7/built-in.o
 .text.armv7_boot_nonsec_default
                0x0000000000000000        0x8 arch/arm/lib/built-in.o
 .text.enable_caches
                0x0000000000000000        0xc arch/arm/lib/built-in.o
 .text.invalidate_dcache_range
                0x0000000000000000        0x4 arch/arm/lib/built-in.o
 .text.flush_dcache_range
                0x0000000000000000        0x4 arch/arm/lib/built-in.o
 .text.flush_dcache_all
                0x0000000000000000        0xc arch/arm/lib/built-in.o
 .text.arm_init_before_mmu
                0x0000000000000000        0x4 arch/arm/lib/built-in.o
 .text.mmu_page_table_flush
                0x0000000000000000        0x4 arch/arm/lib/built-in.o
 .text.icache_status
                0x0000000000000000       0x24 arch/arm/lib/built-in.o
 .text.fdt_psci
                0x0000000000000000        0x8 arch/arm/lib/built-in.o
 .rodata.enable_caches.str1.1
                0x0000000000000000       0x1d arch/arm/lib/built-in.o
 .data          0x0000000000000000        0x0 arch/arm/lib/built-in.o
 .__secure_end  0x0000000000000000        0x0 arch/arm/lib/built-in.o
 .__secure_stack_end
                0x0000000000000000        0x0 arch/arm/lib/built-in.o
 .__secure_stack_start
                0x0000000000000000        0x0 arch/arm/lib/built-in.o
 .__secure_start
                0x0000000000000000        0x0 arch/arm/lib/built-in.o
 .bss           0x0000000000000000        0x0 arch/arm/lib/built-in.o
 .text          0x0000000000000000        0x0 arch/arm/mach-bcm283x/built-in.o
 .text.hw_watchdog_disable
                0x0000000000000000        0x4 arch/arm/mach-bcm283x/built-in.o
 .data          0x0000000000000000        0x0 arch/arm/mach-bcm283x/built-in.o
 .bss           0x0000000000000000        0x0 arch/arm/mach-bcm283x/built-in.o
 .text.board_fdt_blob_setup
                0x0000000000000000       0x28 board/raspberrypi/rpi/built-in.o
 .bss           0x0000000000000000        0x0 board/raspberrypi/rpi/built-in.o
 .text          0x0000000000000000        0x0 cmd/built-in.o
 .text.bootz_setup
                0x0000000000000000       0x18 cmd/built-in.o
 .text.name_to_gpio
                0x0000000000000000        0xc cmd/built-in.o
 .rodata.bootz_setup.str1.1
                0x0000000000000000       0x34 cmd/built-in.o
 .data          0x0000000000000000        0x0 cmd/built-in.o
 .bss           0x0000000000000000        0x0 cmd/built-in.o
 .text          0x0000000000000000        0x0 common/built-in.o
 .text.board_init_f_init_stack_protection_addr
                0x0000000000000000        0x4 common/built-in.o
 .text.board_init_f_init_stack_protection
                0x0000000000000000        0x4 common/built-in.o
 .text.hash_finish_crc32
                0x0000000000000000       0x30 common/built-in.o
 .text.hash_finish_crc16_ccitt
                0x0000000000000000       0x30 common/built-in.o
 .text.hash_update_crc32
                0x0000000000000000       0x24 common/built-in.o
 .text.hash_init_crc32
                0x0000000000000000       0x24 common/built-in.o
 .text.hash_init_crc16_ccitt
                0x0000000000000000       0x24 common/built-in.o
 .text.hash_update_crc16_ccitt
                0x0000000000000000       0x24 common/built-in.o
 .text.hash_lookup_algo
                0x0000000000000000       0x58 common/built-in.o
 .text.hash_progressive_lookup_algo
                0x0000000000000000       0x70 common/built-in.o
 .text.hash_parse_string
                0x0000000000000000       0x68 common/built-in.o
 .text.hash_block
                0x0000000000000000       0x6c common/built-in.o
 .text.unset_local_var
                0x0000000000000000       0x98 common/built-in.o
 .text.arch_cpu_init
                0x0000000000000000        0x8 common/built-in.o
 .text.mach_cpu_init
                0x0000000000000000        0x8 common/built-in.o
 .text.arch_reserve_mmu
                0x0000000000000000        0x8 common/built-in.o
 .text.red_led_off
                0x0000000000000000        0x4 common/built-in.o
 .text.green_led_on
                0x0000000000000000        0x4 common/built-in.o
 .text.green_led_off
                0x0000000000000000        0x4 common/built-in.o
 .text.yellow_led_on
                0x0000000000000000        0x4 common/built-in.o
 .text.yellow_led_off
                0x0000000000000000        0x4 common/built-in.o
 .text.blue_led_on
                0x0000000000000000        0x4 common/built-in.o
 .text.blue_led_off
                0x0000000000000000        0x4 common/built-in.o
 .text.board_get_usable_ram_top
                0x0000000000000000        0xc common/built-in.o
 .text.arch_reserve_stacks
                0x0000000000000000        0x8 common/built-in.o
 .text.board_flash_wp_on
                0x0000000000000000        0x8 common/built-in.o
 .text.fixup_cpu
                0x0000000000000000        0x8 common/built-in.o
 .text.board_quiesce_devices
                0x0000000000000000        0x4 common/built-in.o
 .text.fdt_getprop_u32_default
                0x0000000000000000       0x40 common/built-in.o
 .text.do_fixup_by_path_u32
                0x0000000000000000       0x2c common/built-in.o
 .text.do_fixup_by_prop
                0x0000000000000000       0xa0 common/built-in.o
 .text.do_fixup_by_prop_u32
                0x0000000000000000       0x3c common/built-in.o
 .text.do_fixup_by_compat
                0x0000000000000000       0x8c common/built-in.o
 .text.do_fixup_by_compat_u32
                0x0000000000000000       0x2c common/built-in.o
 .text.fdt_set_usable_memory
                0x0000000000000000       0xec common/built-in.o
 .text.fdt_record_loadable
                0x0000000000000000      0x168 common/built-in.o
 .text.fdt_increase_size
                0x0000000000000000       0x14 common/built-in.o
 .text.fdt_del_node_and_alias
                0x0000000000000000       0x44 common/built-in.o
 .text.fdt_translate_dma_address
                0x0000000000000000        0xc common/built-in.o
 .text.fdt_node_offset_by_compat_reg
                0x0000000000000000       0x8c common/built-in.o
 .text.fdt_alloc_phandle
                0x0000000000000000       0x58 common/built-in.o
 .text.fdt_set_phandle
                0x0000000000000000       0x60 common/built-in.o
 .text.fdt_create_phandle
                0x0000000000000000       0x64 common/built-in.o
 .text.fdt_set_node_status
                0x0000000000000000       0xe8 common/built-in.o
 .text.fdt_set_status_by_alias
                0x0000000000000000       0x2c common/built-in.o
 .text.fdt_verify_alias_address
                0x0000000000000000       0xd4 common/built-in.o
 .text.fdt_get_base_address
                0x0000000000000000       0x40 common/built-in.o
 .text.fdt_fixup_display
                0x0000000000000000       0xd4 common/built-in.o
 .text.mdio_register_seq
                0x0000000000000000       0x34 common/built-in.o
 .text.mdio_get_list_head
                0x0000000000000000        0xc common/built-in.o
 .text.usb_get_report
                0x0000000000000000       0x58 common/built-in.o
 .text.usb_get_class_descriptor
                0x0000000000000000       0x58 common/built-in.o
 .text.board_usb_init
                0x0000000000000000        0x8 common/built-in.o
 .text.board_usb_cleanup
                0x0000000000000000        0x8 common/built-in.o
 .text.usb_hub_probe
                0x0000000000000000       0x54 common/built-in.o
 .text.iomux_printdevs
                0x0000000000000000       0x58 common/built-in.o
 .text.splash_screen_prepare
                0x0000000000000000        0x8 common/built-in.o
 .text.splash_display_banner
                0x0000000000000000       0x60 common/built-in.o
 .text.lcd_dt_simplefb_enable_existing_node
                0x0000000000000000       0x34 common/built-in.o
 .text.menu_default_choice
                0x0000000000000000       0x1c common/built-in.o
 .text.overwrite_console
                0x0000000000000000        0x8 common/built-in.o
 .text.cli_simple_parse_line
                0x0000000000000000       0x90 common/built-in.o
 .text.cli_simple_run_command
                0x0000000000000000      0x160 common/built-in.o
 .text.cli_simple_loop
                0x0000000000000000       0x80 common/built-in.o
 .text.cli_simple_run_command_list
                0x0000000000000000       0x70 common/built-in.o
 .text.fgetc    0x0000000000000000       0x40 common/built-in.o
 .text.ftstc    0x0000000000000000       0x14 common/built-in.o
 .text.fputc    0x0000000000000000        0xc common/built-in.o
 .text.fprintf  0x0000000000000000       0x4c common/built-in.o
 .text.confirm_yesno
                0x0000000000000000       0xd0 common/built-in.o
 .text.console_announce_r
                0x0000000000000000       0xb4 common/built-in.o
 .text.valloc   0x0000000000000000        0xc common/built-in.o
 .text.pvalloc  0x0000000000000000       0x18 common/built-in.o
 .text.cfree    0x0000000000000000        0x4 common/built-in.o
 .text.malloc_usable_size
                0x0000000000000000       0x3c common/built-in.o
 .text.mallopt  0x0000000000000000       0x54 common/built-in.o
 .text.malloc_simple_info
                0x0000000000000000       0x18 common/built-in.o
 .text.image_decomp_type
                0x0000000000000000       0x4c common/built-in.o
 .text.genimg_get_short_name
                0x0000000000000000       0x1c common/built-in.o
 .text.genimg_get_cat_name
                0x0000000000000000       0x5c common/built-in.o
 .text.genimg_get_cat_short_name
                0x0000000000000000       0x5c common/built-in.o
 .text.genimg_get_cat_count
                0x0000000000000000       0x18 common/built-in.o
 .text.genimg_get_cat_desc
                0x0000000000000000       0x18 common/built-in.o
 .text.genimg_get_type_short_name
                0x0000000000000000       0x10 common/built-in.o
 .text.genimg_get_comp_short_name
                0x0000000000000000       0x10 common/built-in.o
 .text.genimg_get_os_short_name
                0x0000000000000000       0x10 common/built-in.o
 .text.genimg_get_arch_short_name
                0x0000000000000000       0x10 common/built-in.o
 .text.get_table_entry_id
                0x0000000000000000       0x4c common/built-in.o
 .text.genimg_get_os_id
                0x0000000000000000       0x18 common/built-in.o
 .text.genimg_get_arch_id
                0x0000000000000000       0x18 common/built-in.o
 .text.genimg_get_type_id
                0x0000000000000000       0x18 common/built-in.o
 .text.genimg_get_comp_id
                0x0000000000000000       0x18 common/built-in.o
 .text.arch_fixup_fdt
                0x0000000000000000        0x8 common/built-in.o
 .text.get_ram_size
                0x0000000000000000       0xf0 common/built-in.o
 .text.stdio_deregister
                0x0000000000000000       0x28 common/built-in.o
 .text.stdio_init
                0x0000000000000000       0x14 common/built-in.o
 .text.run_command_repeatable
                0x0000000000000000       0x1c common/built-in.o
 .text.cmd_discard_repeatable
                0x0000000000000000       0x1c common/built-in.o
 .rodata.fdt_set_usable_memory.str1.1
                0x0000000000000000       0x41 common/built-in.o
 .rodata.fdt_record_loadable.str1.1
                0x0000000000000000       0x2e common/built-in.o
 .rodata.fdt_translate_dma_address.str1.1
                0x0000000000000000        0xb common/built-in.o
 .rodata.fdt_set_phandle.str1.1
                0x0000000000000000       0x16 common/built-in.o
 .rodata.fdt_create_phandle.str1.1
                0x0000000000000000       0x1a common/built-in.o
 .rodata.fdt_verify_alias_address.str1.1
                0x0000000000000000       0xcc common/built-in.o
 .rodata.fdt_fixup_display.str1.1
                0x0000000000000000       0x1c common/built-in.o
 .rodata.__func__.9063
                0x0000000000000000       0x16 common/built-in.o
 .rodata.__func__.9103
                0x0000000000000000       0x14 common/built-in.o
 .rodata.mdio_register_seq.str1.1
                0x0000000000000000        0x6 common/built-in.o
 .rodata.iomux_printdevs.str1.1
                0x0000000000000000        0x6 common/built-in.o
 .rodata.lcd_dt_simplefb_enable_existing_node.str1.1
                0x0000000000000000       0x13 common/built-in.o
 .rodata.cli_simple_parse_line.str1.1
                0x0000000000000000       0x1f common/built-in.o
 .rodata.cli_simple_run_command.str1.1
                0x0000000000000000       0x16 common/built-in.o
 .rodata.cli_simple_loop.str1.1
                0x0000000000000000       0x16 common/built-in.o
 .rodata.confirm_yesno.str1.1
                0x0000000000000000       0x10 common/built-in.o
 .rodata.malloc_simple_info.str1.1
                0x0000000000000000       0x2b common/built-in.o
 .rodata.genimg_get_short_name.str1.1
                0x0000000000000000        0x8 common/built-in.o
 .rodata.genimg_get_os_id.str1.1
                0x0000000000000000        0x3 common/built-in.o
 .rodata.genimg_get_arch_id.str1.1
                0x0000000000000000        0x4 common/built-in.o
 .rodata.genimg_get_type_id.str1.1
                0x0000000000000000        0x6 common/built-in.o
 .rodata.genimg_get_comp_id.str1.1
                0x0000000000000000        0xc common/built-in.o
 .rodata.image_comp
                0x0000000000000000       0x3c common/built-in.o
 .rodata.table_info
                0x0000000000000000       0x30 common/built-in.o
 .rodata.unknown_str.9899
                0x0000000000000000        0x9 common/built-in.o
 .data          0x0000000000000000        0x0 common/built-in.o
 .data.hash_algo
                0x0000000000000000       0x38 common/built-in.o
 .bss           0x0000000000000000        0x0 common/built-in.o
 .bss.lastcommand.8567
                0x0000000000000000      0x401 common/built-in.o
 .bss.image_save_addr
                0x0000000000000000        0x4 common/built-in.o
 .bss.image_save_size
                0x0000000000000000        0x4 common/built-in.o
 .bss.msg.9900  0x0000000000000000       0x1e common/built-in.o
 .text          0x0000000000000000        0x0 disk/built-in.o
 .text.blk_get_dev
                0x0000000000000000       0x2c disk/built-in.o
 .text.part_get_info_by_dev_and_name_or_num
                0x0000000000000000      0x108 disk/built-in.o
 .text.is_valid_dos_buf
                0x0000000000000000       0x18 disk/built-in.o
 .text.write_mbr_partition
                0x0000000000000000       0x64 disk/built-in.o
 .text.get_disk_guid
                0x0000000000000000       0x88 disk/built-in.o
 .text.write_gpt_table
                0x0000000000000000      0x47c disk/built-in.o
 .text.gpt_fill_pte
                0x0000000000000000      0x2fc disk/built-in.o
 .text.gpt_fill_header
                0x0000000000000000      0x234 disk/built-in.o
 .text.gpt_restore
                0x0000000000000000      0x124 disk/built-in.o
 .text.gpt_verify_headers
                0x0000000000000000       0x88 disk/built-in.o
 .text.gpt_verify_partitions
                0x0000000000000000      0x1f8 disk/built-in.o
 .text.is_valid_gpt_buf
                0x0000000000000000       0x70 disk/built-in.o
 .text.write_mbr_and_gpt_partitions
                0x0000000000000000      0x3bc disk/built-in.o
 .rodata.part_get_info_by_dev_and_name_or_num.str1.1
                0x0000000000000000       0x54 disk/built-in.o
 .rodata.write_mbr_partition.str1.1
                0x0000000000000000       0x2d disk/built-in.o
 .rodata.__func__.8530
                0x0000000000000000       0x14 disk/built-in.o
 .rodata.write_gpt_table.str1.1
                0x0000000000000000       0x55 disk/built-in.o
 .rodata.gpt_fill_pte.str1.1
                0x0000000000000000       0x5b disk/built-in.o
 .rodata.gpt_fill_header.str1.1
                0x0000000000000000       0x24 disk/built-in.o
 .rodata.gpt_verify_partitions.str1.1
                0x0000000000000000       0xa3 disk/built-in.o
 .rodata.write_mbr_and_gpt_partitions.str1.1
                0x0000000000000000       0x7c disk/built-in.o
 .rodata.__func__.8659
                0x0000000000000000       0x13 disk/built-in.o
 .rodata.__func__.8721
                0x0000000000000000        0xc disk/built-in.o
 .rodata.__func__.8739
                0x0000000000000000       0x13 disk/built-in.o
 .rodata.__func__.8772
                0x0000000000000000       0x1d disk/built-in.o
 .rodata.partition_basic_data_guid
                0x0000000000000000       0x10 disk/built-in.o
 .data          0x0000000000000000        0x0 disk/built-in.o
 .bss           0x0000000000000000        0x0 disk/built-in.o
 .text          0x0000000000000000        0x0 drivers/built-in.o
 .text._device_find_global_by_ofnode
                0x0000000000000000       0x50 drivers/built-in.o
 .text.device_bind_ofnode
                0x0000000000000000       0x28 drivers/built-in.o
 .text.device_get_device_tail.part.0
                0x0000000000000000       0x1c drivers/built-in.o
 .text.device_get_child
                0x0000000000000000       0x4c drivers/built-in.o
 .text.device_get_child_count
                0x0000000000000000       0x28 drivers/built-in.o
 .text.device_find_child_by_seq
                0x0000000000000000       0x68 drivers/built-in.o
 .text.device_get_child_by_seq
                0x0000000000000000       0x50 drivers/built-in.o
 .text.device_find_child_by_of_offset
                0x0000000000000000       0x4c drivers/built-in.o
 .text.device_get_child_by_of_offset
                0x0000000000000000       0x34 drivers/built-in.o
 .text.device_find_global_by_ofnode
                0x0000000000000000       0x2c drivers/built-in.o
 .text.device_get_global_by_ofnode
                0x0000000000000000       0x34 drivers/built-in.o
 .text.device_find_first_inactive_child
                0x0000000000000000       0x60 drivers/built-in.o
 .text.device_find_first_child_by_uclass
                0x0000000000000000       0x54 drivers/built-in.o
 .text.device_find_child_by_name
                0x0000000000000000       0x58 drivers/built-in.o
 .text.device_first_child_err
                0x0000000000000000       0x30 drivers/built-in.o
 .text.device_next_child_err
                0x0000000000000000       0x34 drivers/built-in.o
 .text.device_first_child_ofdata_err
                0x0000000000000000       0x38 drivers/built-in.o
 .text.device_next_child_ofdata_err
                0x0000000000000000       0x40 drivers/built-in.o
 .text.dev_get_driver_ops
                0x0000000000000000       0x10 drivers/built-in.o
 .text.dev_get_uclass_name
                0x0000000000000000       0x14 drivers/built-in.o
 .text.device_has_children
                0x0000000000000000       0x14 drivers/built-in.o
 .text.device_set_name
                0x0000000000000000       0x30 drivers/built-in.o
 .text.device_is_compatible
                0x0000000000000000       0x18 drivers/built-in.o
 .text.of_machine_is_compatible
                0x0000000000000000       0x20 drivers/built-in.o
 .text.dev_disable_by_path
                0x0000000000000000       0x10 drivers/built-in.o
 .text.dev_enable_by_path
                0x0000000000000000       0x14 drivers/built-in.o
 .text.devfdt_get_addr_size_index
                0x0000000000000000       0x40 drivers/built-in.o
 .text.devfdt_get_addr_name
                0x0000000000000000       0x34 drivers/built-in.o
 .text.devfdt_get_addr_size_name
                0x0000000000000000       0x3c drivers/built-in.o
 .text.devfdt_remap_addr_index
                0x0000000000000000       0x14 drivers/built-in.o
 .text.devfdt_remap_addr_name
                0x0000000000000000       0x14 drivers/built-in.o
 .text.devfdt_remap_addr
                0x0000000000000000        0x8 drivers/built-in.o
 .text.devfdt_map_physmem
                0x0000000000000000       0x14 drivers/built-in.o
 .text.devfdt_get_addr_pci
                0x0000000000000000        0x4 drivers/built-in.o
 .text.dm_fixup_for_gd_move
                0x0000000000000000       0x24 drivers/built-in.o
 .text.dm_uninit
                0x0000000000000000       0x24 drivers/built-in.o
 .text.uclass_destroy
                0x0000000000000000       0x9c drivers/built-in.o
 .text.uclass_get_name
                0x0000000000000000       0x28 drivers/built-in.o
 .text.uclass_get_by_name
                0x0000000000000000       0x4c drivers/built-in.o
 .text.uclass_find_next_free_req_seq
                0x0000000000000000       0x60 drivers/built-in.o
 .text.uclass_get_device_by_driver
                0x0000000000000000       0x6c drivers/built-in.o
 .text.uclass_first_device_drvdata
                0x0000000000000000       0x6c drivers/built-in.o
 .text.list_count_items
                0x0000000000000000       0x24 drivers/built-in.o
 .text.pci_get_devfn
                0x0000000000000000       0x38 drivers/built-in.o
 .text.simple_bus_translate
                0x0000000000000000       0x38 drivers/built-in.o
 .text.ofnode_read_fmap_entry
                0x0000000000000000       0xf0 drivers/built-in.o
 .text.ofnode_decode_region
                0x0000000000000000       0x54 drivers/built-in.o
 .text.ofnode_decode_memory_region
                0x0000000000000000      0x114 drivers/built-in.o
 .text.ofnode_read_u32
                0x0000000000000000        0xc drivers/built-in.o
 .text.ofnode_read_u32_index_default
                0x0000000000000000       0x1c drivers/built-in.o
 .text.ofnode_read_s32_default
                0x0000000000000000       0x1c drivers/built-in.o
 .text.ofnode_read_prop
                0x0000000000000000       0x50 drivers/built-in.o
 .text.ofnode_read_string
                0x0000000000000000       0x38 drivers/built-in.o
 .text.ofnode_read_size
                0x0000000000000000       0x20 drivers/built-in.o
 .text.ofnode_find_subnode
                0x0000000000000000       0x20 drivers/built-in.o
 .text.decode_timing_property
                0x0000000000000000       0x60 drivers/built-in.o
 .text.ofnode_get_parent
                0x0000000000000000       0x14 drivers/built-in.o
 .text.ofnode_get_by_phandle
                0x0000000000000000       0x14 drivers/built-in.o
 .text.ofnode_read_string_index
                0x0000000000000000       0x44 drivers/built-in.o
 .text.ofnode_read_string_count
                0x0000000000000000       0x14 drivers/built-in.o
 .text.ofnode_count_phandle_with_args
                0x0000000000000000       0x38 drivers/built-in.o
 .text.ofnode_read_chosen_prop
                0x0000000000000000       0x28 drivers/built-in.o
 .text.ofnode_read_chosen_string
                0x0000000000000000        0x8 drivers/built-in.o
 .text.ofnode_get_chosen_node
                0x0000000000000000       0x24 drivers/built-in.o
 .text.ofnode_decode_display_timing
                0x0000000000000000      0x280 drivers/built-in.o
 .text.ofnode_get_first_property
                0x0000000000000000       0x28 drivers/built-in.o
 .text.ofnode_get_next_property
                0x0000000000000000       0x20 drivers/built-in.o
 .text.ofnode_get_property_by_prop
                0x0000000000000000       0x18 drivers/built-in.o
 .text.ofnode_is_available
                0x0000000000000000       0x1c drivers/built-in.o
 .text.ofnode_get_addr_size
                0x0000000000000000       0x18 drivers/built-in.o
 .text.ofnode_read_pci_addr
                0x0000000000000000       0xa8 drivers/built-in.o
 .text.ofnode_read_pci_vendev
                0x0000000000000000       0xe0 drivers/built-in.o
 .text.ofnode_read_addr_cells
                0x0000000000000000        0xc drivers/built-in.o
 .text.ofnode_read_size_cells
                0x0000000000000000        0xc drivers/built-in.o
 .text.ofnode_get_addr_size_index
                0x0000000000000000       0x60 drivers/built-in.o
 .text.ofnode_get_addr_index
                0x0000000000000000       0x14 drivers/built-in.o
 .text.ofnode_get_addr
                0x0000000000000000        0x8 drivers/built-in.o
 .text.ofnode_read_simple_addr_cells
                0x0000000000000000        0x4 drivers/built-in.o
 .text.ofnode_read_simple_size_cells
                0x0000000000000000        0x4 drivers/built-in.o
 .text.ofnode_read_resource
                0x0000000000000000       0x64 drivers/built-in.o
 .text.ofnode_read_resource_byname
                0x0000000000000000       0x34 drivers/built-in.o
 .text.ofnode_translate_address
                0x0000000000000000       0x14 drivers/built-in.o
 .text.ofnode_translate_dma_address
                0x0000000000000000       0x14 drivers/built-in.o
 .text.ofnode_device_is_compatible
                0x0000000000000000       0x24 drivers/built-in.o
 .text.ofnode_by_compatible
                0x0000000000000000       0x20 drivers/built-in.o
 .text.ofnode_by_prop_value
                0x0000000000000000       0x2c drivers/built-in.o
 .text.ofnode_write_prop
                0x0000000000000000        0x8 drivers/built-in.o
 .text.ofnode_write_string
                0x0000000000000000        0x8 drivers/built-in.o
 .text.ofnode_set_enabled
                0x0000000000000000        0x8 drivers/built-in.o
 .text.create_keymap
                0x0000000000000000       0x8c drivers/built-in.o
 .text.key_matrix_decode
                0x0000000000000000       0xf0 drivers/built-in.o
 .text.key_matrix_decode_fdt
                0x0000000000000000       0xb0 drivers/built-in.o
 .text.key_matrix_init
                0x0000000000000000       0x3c drivers/built-in.o
 .text._input_send_keycodes
                0x0000000000000000      0x448 drivers/built-in.o
 .text.input_send_keycodes
                0x0000000000000000        0x8 drivers/built-in.o
 .text.input_add_keycode
                0x0000000000000000       0x8c drivers/built-in.o
 .text.input_add_table
                0x0000000000000000       0x40 drivers/built-in.o
 .text.input_set_delays
                0x0000000000000000        0xc drivers/built-in.o
 .text.input_allow_repeats
                0x0000000000000000        0x8 drivers/built-in.o
 .text.input_leds_changed
                0x0000000000000000       0x14 drivers/built-in.o
 .text.input_add_tables
                0x0000000000000000       0x78 drivers/built-in.o
 .text.input_stdio_register
                0x0000000000000000       0x54 drivers/built-in.o
 .text.pinctrl_gpio_get_pinctrl_and_offset.isra.0
                0x0000000000000000       0x88 drivers/built-in.o
 .text.pinctrl_gpio_request
                0x0000000000000000       0x58 drivers/built-in.o
 .text.pinctrl_gpio_free
                0x0000000000000000       0x58 drivers/built-in.o
 .text.pinctrl_request
                0x0000000000000000       0x20 drivers/built-in.o
 .text.pinctrl_request_noflags
                0x0000000000000000        0x8 drivers/built-in.o
 .text.pinctrl_get_periph_id
                0x0000000000000000       0x20 drivers/built-in.o
 .text.blk_get_by_device
                0x0000000000000000       0x44 drivers/built-in.o
 .text.blk_get_from_parent
                0x0000000000000000       0x4c drivers/built-in.o
 .text.blk_unbind_all
                0x0000000000000000       0xa4 drivers/built-in.o
 .text.cpu_mmc_init
                0x0000000000000000        0x8 drivers/built-in.o
 .text.board_mmc_init
                0x0000000000000000        0x8 drivers/built-in.o
 .text.mmc_set_preinit
                0x0000000000000000        0x8 drivers/built-in.o
 .text.mmc_init_device
                0x0000000000000000       0x48 drivers/built-in.o
 .text.mmc_of_parse
                0x0000000000000000      0x2e0 drivers/built-in.o
 .text.mmc_get_next_devnum
                0x0000000000000000        0x8 drivers/built-in.o
 .text.mmc_unbind
                0x0000000000000000       0x34 drivers/built-in.o
 .text.sdhci_set_uhs_timing
                0x0000000000000000       0xb8 drivers/built-in.o
 .text.rtc_month_days
                0x0000000000000000       0x60 drivers/built-in.o
 .text.rtc_to_tm
                0x0000000000000000      0x1b8 drivers/built-in.o
 .text.panel_enable_backlight
                0x0000000000000000       0x20 drivers/built-in.o
 .text.panel_set_backlight
                0x0000000000000000       0x20 drivers/built-in.o
 .text.panel_get_display_timing
                0x0000000000000000       0x20 drivers/built-in.o
 .text.fb_put_byte
                0x0000000000000000       0x24 drivers/built-in.o
 .text.video_bmp_display
                0x0000000000000000      0x38c drivers/built-in.o
 .rodata.devfdt_get_addr_name.str1.1
                0x0000000000000000        0xa drivers/built-in.o
 .rodata.pci_get_devfn.str1.1
                0x0000000000000000        0x4 drivers/built-in.o
 .rodata.ofnode_read_fmap_entry.str1.1
                0x0000000000000000       0x32 drivers/built-in.o
 .rodata.ofnode_decode_memory_region.str1.1
                0x0000000000000000       0x2d drivers/built-in.o
 .rodata.ofnode_read_chosen_prop.str1.1
                0x0000000000000000        0x8 drivers/built-in.o
 .rodata.ofnode_decode_display_timing.str1.1
                0x0000000000000000       0xca drivers/built-in.o
 .rodata.ofnode_read_pci_vendev.str1.1
                0x0000000000000000       0x1c drivers/built-in.o
 .rodata.ofnode_get_addr_size_index.str1.1
                0x0000000000000000        0x4 drivers/built-in.o
 .rodata.ofnode_read_resource_byname.str1.1
                0x0000000000000000        0xa drivers/built-in.o
 .rodata.key_matrix_decode_fdt.str1.1
                0x0000000000000000       0x1d drivers/built-in.o
 .rodata.input_stdio_register.str1.1
                0x0000000000000000        0x6 drivers/built-in.o
 .rodata.kbd_plain_xlate
                0x0000000000000000       0x64 drivers/built-in.o
 .rodata.kbd_plain_xlate_german
                0x0000000000000000       0x84 drivers/built-in.o
 .rodata.kbd_to_ansi364
                0x0000000000000000       0x20 drivers/built-in.o
 .rodata.pinctrl_gpio_get_pinctrl_and_offset.isra.0.str1.1
                0x0000000000000000        0xc drivers/built-in.o
 .rodata.mmc_of_parse.str1.1
                0x0000000000000000      0x139 drivers/built-in.o
 .rodata.rtc_days_in_month
                0x0000000000000000        0xc drivers/built-in.o
 .rodata.video_bmp_display.str1.1
                0x0000000000000000       0x56 drivers/built-in.o
 .data          0x0000000000000000        0x0 drivers/built-in.o
 .data.kbd_ctrl_xlate
                0x0000000000000000       0x64 drivers/built-in.o
 .data.kbd_entry
                0x0000000000000000       0x8c drivers/built-in.o
 .data.kbd_right_alt_xlate_german
                0x0000000000000000       0x58 drivers/built-in.o
 .data.kbd_shift_xlate
                0x0000000000000000       0x64 drivers/built-in.o
 .data.kbd_shift_xlate_german
                0x0000000000000000       0x84 drivers/built-in.o
 .bss           0x0000000000000000        0x0 drivers/built-in.o
 .text          0x0000000000000000        0x0 drivers/gpio/built-in.o
 .text.gpio_hog_lookup_name
                0x0000000000000000        0x8 drivers/gpio/built-in.o
 .text.gpio_requestf
                0x0000000000000000       0x44 drivers/gpio/built-in.o
 .text._gpio_request_by_name_nodev
                0x0000000000000000       0x74 drivers/gpio/built-in.o
 .text.dm_gpio_set_dir
                0x0000000000000000       0x2c drivers/gpio/built-in.o
 .text.dm_gpio_get_dir_flags
                0x0000000000000000       0xc0 drivers/gpio/built-in.o
 .text.gpio_claim_vector
                0x0000000000000000       0x80 drivers/gpio/built-in.o
 .text.gpio_get_values_as_int
                0x0000000000000000       0x44 drivers/gpio/built-in.o
 .text.dm_gpio_get_values_as_int
                0x0000000000000000       0x4c drivers/gpio/built-in.o
 .text.gpio_request_by_name_nodev
                0x0000000000000000       0x28 drivers/gpio/built-in.o
 .text.gpio_get_list_count
                0x0000000000000000       0x3c drivers/gpio/built-in.o
 .text.dm_gpio_free
                0x0000000000000000       0x10 drivers/gpio/built-in.o
 .text.gpio_free_list
                0x0000000000000000       0x3c drivers/gpio/built-in.o
 .text.gpio_free_list_nodev
                0x0000000000000000       0x10 drivers/gpio/built-in.o
 .text.gpio_request_list_by_name_nodev
                0x0000000000000000       0x84 drivers/gpio/built-in.o
 .text.gpio_request_list_by_name
                0x0000000000000000        0x8 drivers/gpio/built-in.o
 .text.gpio_get_number
                0x0000000000000000       0x20 drivers/gpio/built-in.o
 .text.gpio_dev_request_index
                0x0000000000000000       0x54 drivers/gpio/built-in.o
 .rodata.dm_gpio_set_dir.str1.1
                0x0000000000000000        0x8 drivers/gpio/built-in.o
 .rodata.dm_gpio_get_dir_flags.str1.1
                0x0000000000000000        0xe drivers/gpio/built-in.o
 .data          0x0000000000000000        0x0 drivers/gpio/built-in.o
 .bss           0x0000000000000000        0x0 drivers/gpio/built-in.o
 .text          0x0000000000000000        0x0 drivers/net/phy/built-in.o
 .text.phy_set_supported
                0x0000000000000000       0x58 drivers/net/phy/built-in.o
 .text.miiphy_reset
                0x0000000000000000       0x24 drivers/net/phy/built-in.o
 .text.board_phy_config
                0x0000000000000000       0x1c drivers/net/phy/built-in.o
 .text.phy_config
                0x0000000000000000        0x4 drivers/net/phy/built-in.o
 .text.phy_shutdown
                0x0000000000000000       0x28 drivers/net/phy/built-in.o
 .text.phy_get_interface_by_name
                0x0000000000000000       0x40 drivers/net/phy/built-in.o
 .rodata.phy_interface_strings
                0x0000000000000000       0x64 drivers/net/phy/built-in.o
 .data          0x0000000000000000        0x0 drivers/net/phy/built-in.o
 .bss           0x0000000000000000        0x0 drivers/net/phy/built-in.o
 .text          0x0000000000000000        0x0 drivers/serial/built-in.o
 .text.serial_getconfig
                0x0000000000000000       0x20 drivers/serial/built-in.o
 .text.serial_setconfig
                0x0000000000000000       0x20 drivers/serial/built-in.o
 .text.serial_getinfo
                0x0000000000000000       0x30 drivers/serial/built-in.o
 .data          0x0000000000000000        0x0 drivers/serial/built-in.o
 .bss           0x0000000000000000        0x0 drivers/serial/built-in.o
 .text          0x0000000000000000        0x0 drivers/spi/built-in.o
 .text.spi_set_wordlen
                0x0000000000000000       0x30 drivers/spi/built-in.o
 .text.spi_do_alloc_slave
                0x0000000000000000       0x4c drivers/spi/built-in.o
 .rodata.spi_set_wordlen.str1.1
                0x0000000000000000       0x19 drivers/spi/built-in.o
 .data          0x0000000000000000        0x0 drivers/spi/built-in.o
 .bss           0x0000000000000000        0x0 drivers/spi/built-in.o
 .comment       0x0000000000000000       0x2e drivers/spi/built-in.o
 .note.GNU-stack
                0x0000000000000000        0x0 drivers/spi/built-in.o
 .ARM.attributes
                0x0000000000000000       0x2d drivers/spi/built-in.o
 .debug_aranges
                0x0000000000000000       0x28 drivers/spi/built-in.o
 .debug_info    0x0000000000000000      0xc91 drivers/spi/built-in.o
 .debug_abbrev  0x0000000000000000      0x26b drivers/spi/built-in.o
 .debug_line    0x0000000000000000      0x251 drivers/spi/built-in.o
 .debug_frame   0x0000000000000000       0x4c drivers/spi/built-in.o
 .debug_str     0x0000000000000000      0xa75 drivers/spi/built-in.o
 .debug_loc     0x0000000000000000      0x133 drivers/spi/built-in.o
 .debug_ranges  0x0000000000000000       0x18 drivers/spi/built-in.o
 .text          0x0000000000000000        0x0 drivers/usb/common/built-in.o
 .text.usb_get_dr_mode
                0x0000000000000000       0x60 drivers/usb/common/built-in.o
 .text.usb_get_maximum_speed
                0x0000000000000000       0x60 drivers/usb/common/built-in.o
 .rodata.usb_get_dr_mode.str1.1
                0x0000000000000000       0x1f drivers/usb/common/built-in.o
 .rodata.usb_get_maximum_speed.str1.1
                0x0000000000000000       0x2b drivers/usb/common/built-in.o
 .rodata.str1.1
                0x0000000000000000       0x52 drivers/usb/common/built-in.o
 .rodata.speed_names
                0x0000000000000000       0x18 drivers/usb/common/built-in.o
 .rodata.usb_dr_modes
                0x0000000000000000       0x10 drivers/usb/common/built-in.o
 .data          0x0000000000000000        0x0 drivers/usb/common/built-in.o
 .bss           0x0000000000000000        0x0 drivers/usb/common/built-in.o
 .comment       0x0000000000000000       0x2e drivers/usb/common/built-in.o
 .note.GNU-stack
                0x0000000000000000        0x0 drivers/usb/common/built-in.o
 .ARM.attributes
                0x0000000000000000       0x2d drivers/usb/common/built-in.o
 .debug_aranges
                0x0000000000000000       0x28 drivers/usb/common/built-in.o
 .debug_info    0x0000000000000000     0x16e5 drivers/usb/common/built-in.o
 .debug_abbrev  0x0000000000000000      0x2f2 drivers/usb/common/built-in.o
 .debug_line    0x0000000000000000      0x324 drivers/usb/common/built-in.o
 .debug_frame   0x0000000000000000       0x48 drivers/usb/common/built-in.o
 .debug_str     0x0000000000000000     0x15cb drivers/usb/common/built-in.o
 .debug_loc     0x0000000000000000       0xb4 drivers/usb/common/built-in.o
 .debug_ranges  0x0000000000000000       0x18 drivers/usb/common/built-in.o
 .text          0x0000000000000000        0x0 drivers/usb/eth/built-in.o
 .text.usb_ether_deregister
                0x0000000000000000        0x8 drivers/usb/eth/built-in.o
 .data          0x0000000000000000        0x0 drivers/usb/eth/built-in.o
 .bss           0x0000000000000000        0x0 drivers/usb/eth/built-in.o
 .text          0x0000000000000000        0x0 drivers/usb/host/built-in.o
 .text.create_int_queue
                0x0000000000000000       0x4c drivers/usb/host/built-in.o
 .text.poll_int_queue
                0x0000000000000000       0x3c drivers/usb/host/built-in.o
 .text.destroy_int_queue
                0x0000000000000000       0x3c drivers/usb/host/built-in.o
 .text.usb_setup_ehci_gadget
                0x0000000000000000       0x70 drivers/usb/host/built-in.o
 .text.usb_detect_change
                0x0000000000000000       0xb0 drivers/usb/host/built-in.o
 .data          0x0000000000000000        0x0 drivers/usb/host/built-in.o
 .bss           0x0000000000000000        0x0 drivers/usb/host/built-in.o
 .text          0x0000000000000000        0x0 dts/built-in.o
 .data          0x0000000000000000        0x0 dts/built-in.o
 .bss           0x0000000000000000        0x0 dts/built-in.o
 .text          0x0000000000000000        0x0 env/built-in.o
 .text.env_erase
                0x0000000000000000       0x84 env/built-in.o
 .text.env_flags_parse_varaccess_from_binflags
                0x0000000000000000       0x58 env/built-in.o
 .rodata.env_erase.str1.1
                0x0000000000000000       0x1e env/built-in.o
 .rodata.env_flags_parse_varaccess_from_binflags.str1.1
                0x0000000000000000       0x2c env/built-in.o
 .data          0x0000000000000000        0x0 env/built-in.o
 .bss           0x0000000000000000        0x0 env/built-in.o
 .text          0x0000000000000000        0x0 fs/built-in.o
 .text.fs_get_type_name
                0x0000000000000000       0x1c fs/built-in.o
 .text.fat_register_device
                0x0000000000000000       0x8c fs/built-in.o
 .rodata.fat_register_device.str1.1
                0x0000000000000000       0x2b fs/built-in.o
 .data          0x0000000000000000        0x0 fs/built-in.o
 .bss           0x0000000000000000        0x0 fs/built-in.o
 .bss.ext4fs_symlinknest
                0x0000000000000000        0x4 fs/built-in.o
 .bss.g_parent_inode
                0x0000000000000000        0x4 fs/built-in.o
 .text          0x0000000000000000        0x0 lib/built-in.o
 .text.efi_serialize_load_option
                0x0000000000000000       0xe8 lib/built-in.o
 .text.indent_string
                0x0000000000000000       0x30 lib/built-in.o
 .text.__efi_nesting
                0x0000000000000000       0x10 lib/built-in.o
 .text.__efi_nesting_inc
                0x0000000000000000       0x18 lib/built-in.o
 .text.__efi_nesting_dec
                0x0000000000000000       0x18 lib/built-in.o
 .text.form_callback
                0x0000000000000000       0x14 lib/built-in.o
 .text.extract_config_access
                0x0000000000000000       0x14 lib/built-in.o
 .text.route_config_access
                0x0000000000000000       0x14 lib/built-in.o
 .text.invalidate_icache_all
                0x0000000000000000        0x4 lib/built-in.o
 .text.efi_reset_system_init
                0x0000000000000000        0x8 lib/built-in.o
 .text.allow_unaligned
                0x0000000000000000        0x4 lib/built-in.o
 .text.efi_secure_boot_enabled
                0x0000000000000000       0x10 lib/built-in.o
 .text.efi_get_nonvolatile_variable
                0x0000000000000000        0x4 lib/built-in.o
 .text.u16_strnlen
                0x0000000000000000       0x24 lib/built-in.o
 .text.u16_strcpy
                0x0000000000000000       0x20 lib/built-in.o
 .text.crc7     0x0000000000000000       0x24 lib/built-in.o
 .text.crc8     0x0000000000000000       0x48 lib/built-in.o
 .text.crc16_ccitt_wd_buf
                0x0000000000000000       0x38 lib/built-in.o
 .text.ldiv     0x0000000000000000       0x3c lib/built-in.o
 .text.add_ip_checksums
                0x0000000000000000       0x3c lib/built-in.o
 .text.rc4_encode
                0x0000000000000000       0xf0 lib/built-in.o
 .text.inflateInit_
                0x0000000000000000       0x10 lib/built-in.o
 .text.fdt_get_property_by_offset
                0x0000000000000000       0x2c lib/built-in.o
 .text.fdt_generate_phandle
                0x0000000000000000       0x44 lib/built-in.o
 .text.fdt_get_alias
                0x0000000000000000       0x28 lib/built-in.o
 .text.fdt_node_offset_by_prop_value
                0x0000000000000000       0x98 lib/built-in.o
 .text.fdt_stringlist_contains
                0x0000000000000000       0x7c lib/built-in.o
 .text.fdt_stringlist_count
                0x0000000000000000       0x64 lib/built-in.o
 .text.fdt_stringlist_get
                0x0000000000000000       0xac lib/built-in.o
 .text.fdt_node_check_compatible
                0x0000000000000000       0x40 lib/built-in.o
 .text.fdt_node_offset_by_compatible
                0x0000000000000000       0x74 lib/built-in.o
 .text.fdt_check_full
                0x0000000000000000      0x120 lib/built-in.o
 .text.fdt_nop_property
                0x0000000000000000       0x40 lib/built-in.o
 .text.fdt_nop_node
                0x0000000000000000       0x50 lib/built-in.o
 .text.fdt_sw_probe_
                0x0000000000000000       0x38 lib/built-in.o
 .text.fdt_grab_space_
                0x0000000000000000       0x60 lib/built-in.o
 .text.fdt_add_string_
                0x0000000000000000       0x84 lib/built-in.o
 .text.fdt_sw_probe_struct_
                0x0000000000000000       0x28 lib/built-in.o
 .text.fdt_create_with_flags
                0x0000000000000000       0x78 lib/built-in.o
 .text.fdt_create
                0x0000000000000000        0x8 lib/built-in.o
 .text.fdt_resize
                0x0000000000000000       0xdc lib/built-in.o
 .text.fdt_add_reservemap_entry
                0x0000000000000000       0x8c lib/built-in.o
 .text.fdt_finish_reservemap
                0x0000000000000000       0x2c lib/built-in.o
 .text.fdt_begin_node
                0x0000000000000000       0x60 lib/built-in.o
 .text.fdt_end_node
                0x0000000000000000       0x38 lib/built-in.o
 .text.fdt_property_placeholder
                0x0000000000000000       0xf4 lib/built-in.o
 .text.fdt_property
                0x0000000000000000       0x3c lib/built-in.o
 .text.fdt_finish
                0x0000000000000000      0x10c lib/built-in.o
 .text.fdt_appendprop
                0x0000000000000000       0xdc lib/built-in.o
 .text.fdt_pack
                0x0000000000000000       0x5c lib/built-in.o
 .text.fdt_create_empty_tree
                0x0000000000000000       0x74 lib/built-in.o
 .text.fdt_appendprop_addrrange
                0x0000000000000000      0x150 lib/built-in.o
 .text.fdtdec_get_uint
                0x0000000000000000       0x34 lib/built-in.o
 .text.fdtdec_get_child_count
                0x0000000000000000       0x38 lib/built-in.o
 .text.fdtdec_get_compatible
                0x0000000000000000       0x10 lib/built-in.o
 .text.fdtdec_get_uint64
                0x0000000000000000       0x40 lib/built-in.o
 .text.get_next_memory_node
                0x0000000000000000       0x5c lib/built-in.o
 .text.fdtdec_lookup
                0x0000000000000000       0x48 lib/built-in.o
 .text.fdtdec_next_compatible
                0x0000000000000000       0x10 lib/built-in.o
 .text.fdtdec_next_compatible_subnode
                0x0000000000000000       0x68 lib/built-in.o
 .text.fdtdec_next_alias
                0x0000000000000000       0x94 lib/built-in.o
 .text.fdtdec_add_aliases_for_id
                0x0000000000000000      0x264 lib/built-in.o
 .text.fdtdec_find_aliases_for_id
                0x0000000000000000       0x44 lib/built-in.o
 .text.fdtdec_get_alias_highest_id
                0x0000000000000000       0xc0 lib/built-in.o
 .text.fdtdec_get_chosen_node
                0x0000000000000000       0x28 lib/built-in.o
 .text.fdtdec_check_fdt
                0x0000000000000000       0x10 lib/built-in.o
 .text.fdtdec_lookup_phandle
                0x0000000000000000       0x34 lib/built-in.o
 .text.decode_timing_property
                0x0000000000000000       0x80 lib/built-in.o
 .text.fdtdec_get_int_array_count
                0x0000000000000000       0x58 lib/built-in.o
 .text.fdtdec_locate_array
                0x0000000000000000       0x28 lib/built-in.o
 .text.fdtdec_get_bool
                0x0000000000000000       0x1c lib/built-in.o
 .text.fdtdec_get_byte_array
                0x0000000000000000       0x48 lib/built-in.o
 .text.fdtdec_get_config_bool
                0x0000000000000000       0x44 lib/built-in.o
 .text.fdtdec_get_addr_size_auto_parent
                0x0000000000000000       0x6c lib/built-in.o
 .text.fdtdec_get_addr_size_auto_noparent
                0x0000000000000000       0x54 lib/built-in.o
 .text.fdtdec_get_addr
                0x0000000000000000        0x8 lib/built-in.o
 .text.fdt_get_named_resource
                0x0000000000000000       0x40 lib/built-in.o
 .text.fdtdec_decode_display_timing
                0x0000000000000000      0x2d4 lib/built-in.o
 .text.fdtdec_setup_mem_size_base_fdt
                0x0000000000000000       0x68 lib/built-in.o
 .text.fdtdec_setup_mem_size_base
                0x0000000000000000        0x8 lib/built-in.o
 .text.fdtdec_setup_memory_banksize_fdt
                0x0000000000000000       0xb4 lib/built-in.o
 .text.fdtdec_setup_memory_banksize
                0x0000000000000000        0x8 lib/built-in.o
 .text.fdtdec_set_ethernet_mac_address
                0x0000000000000000       0xa0 lib/built-in.o
 .text.fdtdec_add_reserved_memory
                0x0000000000000000      0x2f4 lib/built-in.o
 .text.fdtdec_get_carveout
                0x0000000000000000       0xd4 lib/built-in.o
 .text.fdtdec_set_carveout
                0x0000000000000000       0xfc lib/built-in.o
 .text.fdtdec_decode_ram_size
                0x0000000000000000      0x1f8 lib/built-in.o
 .text.print_freq
                0x0000000000000000      0x1a0 lib/built-in.o
 .text.crc32_wd_buf
                0x0000000000000000       0x38 lib/built-in.o
 .text.div_s64_rem
                0x0000000000000000       0xc8 lib/built-in.o
 .text.div64_u64_rem
                0x0000000000000000      0x170 lib/built-in.o
 .text.div64_u64
                0x0000000000000000      0x14c lib/built-in.o
 .text.div64_s64
                0x0000000000000000       0x44 lib/built-in.o
 .text.iter_div_u64_rem
                0x0000000000000000       0x3c lib/built-in.o
 .text.copy_from_user
                0x0000000000000000       0x10 lib/built-in.o
 .text.kmalloc  0x0000000000000000       0x40 lib/built-in.o
 .text.get_mem  0x0000000000000000       0x1c lib/built-in.o
 .text.kmem_cache_alloc
                0x0000000000000000       0x14 lib/built-in.o
 .text.kmemdup  0x0000000000000000       0x34 lib/built-in.o
 .text.lmb_init
                0x0000000000000000       0x18 lib/built-in.o
 .text.lmb_is_reserved
                0x0000000000000000       0x58 lib/built-in.o
 .text.arch_lmb_reserve
                0x0000000000000000        0x4 lib/built-in.o
 .text.membuff_purge
                0x0000000000000000       0x10 lib/built-in.o
 .text.membuff_putraw
                0x0000000000000000       0xc0 lib/built-in.o
 .text.membuff_putbyte
                0x0000000000000000       0x30 lib/built-in.o
 .text.membuff_getraw
                0x0000000000000000       0x94 lib/built-in.o
 .text.membuff_getbyte
                0x0000000000000000       0x34 lib/built-in.o
 .text.membuff_peekbyte
                0x0000000000000000       0x30 lib/built-in.o
 .text.membuff_get
                0x0000000000000000       0x70 lib/built-in.o
 .text.membuff_put
                0x0000000000000000       0x6c lib/built-in.o
 .text.membuff_isempty
                0x0000000000000000       0x18 lib/built-in.o
 .text.membuff_avail
                0x0000000000000000       0x54 lib/built-in.o
 .text.membuff_size
                0x0000000000000000        0xc lib/built-in.o
 .text.membuff_makecontig
                0x0000000000000000       0x80 lib/built-in.o
 .text.membuff_free
                0x0000000000000000       0x30 lib/built-in.o
 .text.membuff_readline
                0x0000000000000000       0xac lib/built-in.o
 .text.membuff_extend_by
                0x0000000000000000       0xbc lib/built-in.o
 .text.membuff_init
                0x0000000000000000       0x18 lib/built-in.o
 .text.membuff_new
                0x0000000000000000       0x38 lib/built-in.o
 .text.membuff_uninit
                0x0000000000000000       0x18 lib/built-in.o
 .text.membuff_dispose
                0x0000000000000000       0x24 lib/built-in.o
 .text.strchrnul
                0x0000000000000000       0x20 lib/built-in.o
 .text.strcspn  0x0000000000000000       0x48 lib/built-in.o
 .text.strndup  0x0000000000000000       0x4c lib/built-in.o
 .text.strspn   0x0000000000000000       0x4c lib/built-in.o
 .text.strpbrk  0x0000000000000000       0x54 lib/built-in.o
 .text.strtok   0x0000000000000000       0x68 lib/built-in.o
 .text.strsep   0x0000000000000000       0x34 lib/built-in.o
 .text.strswab  0x0000000000000000       0x48 lib/built-in.o
 .text.memchr_inv
                0x0000000000000000      0x100 lib/built-in.o
 .text.table_compute_checksum
                0x0000000000000000       0x28 lib/built-in.o
 .text.timer_get_boot_us
                0x0000000000000000        0x4 lib/built-in.o
 .text.get_timer_us
                0x0000000000000000       0xe0 lib/built-in.o
 .text.print_hex_dump
                0x0000000000000000        0x4 lib/built-in.o
 .text.print_hex_dump_bytes
                0x0000000000000000        0x4 lib/built-in.o
 .text.panic_str
                0x0000000000000000        0xc lib/built-in.o
 .text.__assert_fail
                0x0000000000000000       0x14 lib/built-in.o
 .text.vsnprintf
                0x0000000000000000        0x4 lib/built-in.o
 .text.scnprintf
                0x0000000000000000       0x28 lib/built-in.o
 .text.print_grouped_ull
                0x0000000000000000       0x88 lib/built-in.o
 .text.str2off  0x0000000000000000       0x3c lib/built-in.o
 .text.str2long
                0x0000000000000000       0x3c lib/built-in.o
 .text.strmhz   0x0000000000000000       0x68 lib/built-in.o
 .text.str_to_upper
                0x0000000000000000       0x60 lib/built-in.o
 .rodata.indent_string.str1.1
                0x0000000000000000       0x15 lib/built-in.o
 .rodata.efi_guid_event_group_ready_to_boot
                0x0000000000000000       0x10 lib/built-in.o
 .rodata.efi_guid_event_group_virtual_address_change
                0x0000000000000000       0x10 lib/built-in.o
 .rodata.efi_guid_hii_config_access_protocol
                0x0000000000000000       0x10 lib/built-in.o
 .rodata.efi_hii_config_access
                0x0000000000000000        0xc lib/built-in.o
 .rodata.efi_guid_cert_type_pkcs7
                0x0000000000000000       0x10 lib/built-in.o
 .rodata.efi_guid_cert_rsa2048
                0x0000000000000000       0x10 lib/built-in.o
 .rodata.efi_guid_cert_x509
                0x0000000000000000       0x10 lib/built-in.o
 .rodata.efi_guid_cert_x509_sha256
                0x0000000000000000       0x10 lib/built-in.o
 .rodata.efi_guid_sha256
                0x0000000000000000       0x10 lib/built-in.o
 .rodata.crc7_syndrome_table
                0x0000000000000000      0x100 lib/built-in.o
 .rodata.z_errmsg
                0x0000000000000000       0x28 lib/built-in.o
 .rodata.fdt_node_check_compatible.str1.1
                0x0000000000000000        0xb lib/built-in.o
 .rodata.fdt_create_empty_tree.str1.1
                0x0000000000000000        0x1 lib/built-in.o
 .rodata.get_next_memory_node.str1.1
                0x0000000000000000       0x13 lib/built-in.o
 .rodata.fdtdec_next_alias.str1.1
                0x0000000000000000        0x7 lib/built-in.o
 .rodata.fdtdec_decode_display_timing.str1.1
                0x0000000000000000       0xca lib/built-in.o
 .rodata.fdtdec_setup_mem_size_base_fdt.str1.1
                0x0000000000000000        0xc lib/built-in.o
 .rodata.fdtdec_set_ethernet_mac_address.str1.1
                0x0000000000000000       0x1b lib/built-in.o
 .rodata.fdtdec_add_reserved_memory.str1.1
                0x0000000000000000       0x51 lib/built-in.o
 .rodata.fdtdec_decode_ram_size.str1.1
                0x0000000000000000       0x21 lib/built-in.o
 .rodata.compat_names
                0x0000000000000000       0x8c lib/built-in.o
 .rodata.names.8684
                0x0000000000000000        0x3 lib/built-in.o
 .rodata.hex_asc_upper
                0x0000000000000000       0x11 lib/built-in.o
 .rodata.__assert_fail.str1.1
                0x0000000000000000       0x22 lib/built-in.o
 .rodata.print_grouped_ull.str1.1
                0x0000000000000000        0xb lib/built-in.o
 .rodata.strmhz.str1.1
                0x0000000000000000        0xb lib/built-in.o
 .data          0x0000000000000000        0x0 lib/built-in.o
 .data.cur      0x0000000000000000        0x4 lib/built-in.o
 .data.current  0x0000000000000000        0x4 lib/built-in.o
 .bss           0x0000000000000000        0x0 lib/built-in.o
 .bss.nesting_level
                0x0000000000000000        0x4 lib/built-in.o
 .bss.___strtok
                0x0000000000000000        0x4 lib/built-in.o
 .text          0x0000000000000000        0x0 net/built-in.o
 .text.eth_init_state_only
                0x0000000000000000       0x38 net/built-in.o
 .text.net_get_udp_handler
                0x0000000000000000       0x10 net/built-in.o
 .text.net_set_arp_handler
                0x0000000000000000       0x20 net/built-in.o
 .text.random_port
                0x0000000000000000       0x18 net/built-in.o
 .text.vlan_to_string
                0x0000000000000000       0x40 net/built-in.o
 .text.env_get_vlan
                0x0000000000000000       0x10 net/built-in.o
 .rodata.vlan_to_string.str1.1
                0x0000000000000000        0x8 net/built-in.o
 .data          0x0000000000000000        0x0 net/built-in.o
 .data.tftp_timeout_ms
                0x0000000000000000        0x4 net/built-in.o
 .bss           0x0000000000000000        0x0 net/built-in.o
 .text          0x0000000000000000        0x0 arch/arm/lib/eabi_compat.o
 .data          0x0000000000000000        0x0 arch/arm/lib/eabi_compat.o
 .bss           0x0000000000000000        0x0 arch/arm/lib/eabi_compat.o
 .rodata.raise.str1.1
                0x0000000000000000       0x1b arch/arm/lib/eabi_compat.o
 .text.raise    0x0000000000000000       0x1c arch/arm/lib/eabi_compat.o
 .text.__aeabi_unwind_cpp_pr0
                0x0000000000000000        0x4 arch/arm/lib/eabi_compat.o
 .text.__aeabi_unwind_cpp_pr1
                0x0000000000000000        0x4 arch/arm/lib/eabi_compat.o
 .text.__aeabi_memcpy
                0x0000000000000000        0x4 arch/arm/lib/eabi_compat.o
 .text.__aeabi_memset
                0x0000000000000000       0x10 arch/arm/lib/eabi_compat.o
 .debug_info    0x0000000000000000      0xc19 arch/arm/lib/eabi_compat.o
 .debug_abbrev  0x0000000000000000      0x288 arch/arm/lib/eabi_compat.o
 .debug_loc     0x0000000000000000      0x12a arch/arm/lib/eabi_compat.o
 .debug_aranges
                0x0000000000000000       0x38 arch/arm/lib/eabi_compat.o
 .debug_ranges  0x0000000000000000       0x28 arch/arm/lib/eabi_compat.o
 .debug_line    0x0000000000000000      0x22e arch/arm/lib/eabi_compat.o
 .debug_str     0x0000000000000000      0xa4a arch/arm/lib/eabi_compat.o
 .comment       0x0000000000000000       0x2e arch/arm/lib/eabi_compat.o
 .note.GNU-stack
                0x0000000000000000        0x0 arch/arm/lib/eabi_compat.o
 .debug_frame   0x0000000000000000       0x68 arch/arm/lib/eabi_compat.o
 .ARM.attributes
                0x0000000000000000       0x2d arch/arm/lib/eabi_compat.o
 .text          0x0000000000000000        0x0 arch/arm/lib/lib.a(lib1funcs.o)
 .data          0x0000000000000000        0x0 arch/arm/lib/lib.a(lib1funcs.o)
 .bss           0x0000000000000000        0x0 arch/arm/lib/lib.a(lib1funcs.o)
 .text.__umodsi3
                0x0000000000000000       0xa0 arch/arm/lib/lib.a(lib1funcs.o)
 .text.__modsi3
                0x0000000000000000       0xb8 arch/arm/lib/lib.a(lib1funcs.o)
 .text          0x0000000000000000        0x0 arch/arm/lib/lib.a(div0.o)
 .data          0x0000000000000000        0x0 arch/arm/lib/lib.a(div0.o)
 .bss           0x0000000000000000        0x0 arch/arm/lib/lib.a(div0.o)

Memory Configuration

Name             Origin             Length             Attributes
*default*        0x0000000000000000 0xffffffffffffffff

Linker script and memory map

Address of section .text set to 0x8000
                0x0000000000000000                . = 0x0
                0x0000000000000000                . = ALIGN (0x4)

.text           0x0000000000008000      0x3b0
 *(.__image_copy_start)
 .__image_copy_start
                0x0000000000008000        0x0 arch/arm/lib/built-in.o
                0x0000000000008000                __image_copy_start
 *(.vectors)
 .vectors       0x0000000000008000      0x2e8 arch/arm/lib/built-in.o
                0x0000000000008000                _start
                0x0000000000008020                _undefined_instruction
                0x0000000000008024                _software_interrupt
                0x0000000000008028                _prefetch_abort
                0x000000000000802c                _data_abort
                0x0000000000008030                _not_used
                0x0000000000008034                _irq
                0x0000000000008038                _fiq
                0x0000000000008040                IRQ_STACK_START_IN
 arch/arm/cpu/armv7/start.o(.text*)
 .text          0x00000000000082e8       0xc8 arch/arm/cpu/armv7/start.o
                0x00000000000082e8                reset
                0x00000000000082ec                save_boot_params_ret
                0x00000000000082fc                switch_to_hypervisor_ret
                0x0000000000008330                c_runtime_cpu_setup
                0x0000000000008344                switch_to_hypervisor
                0x0000000000008348                cpu_init_cp15

.glue_7         0x00000000000083b0        0x0
 .glue_7        0x00000000000083b0        0x0 linker stubs

.glue_7t        0x00000000000083b0        0x0
 .glue_7t       0x00000000000083b0        0x0 linker stubs

.vfp11_veneer   0x00000000000083b0        0x0
 .vfp11_veneer  0x00000000000083b0        0x0 linker stubs

.v4_bx          0x00000000000083b0        0x0
 .v4_bx         0x00000000000083b0        0x0 linker stubs

.iplt           0x00000000000083b0        0x0
 .iplt          0x00000000000083b0        0x0 arch/arm/cpu/armv7/start.o

.__efi_runtime_start
                0x00000000000083b0        0x0
 *(.__efi_runtime_start)
 .__efi_runtime_start
                0x00000000000083b0        0x0 arch/arm/lib/built-in.o

.efi_runtime    0x00000000000083b0      0x998
 *(.text.efi_runtime*)
 .text.efi_runtime
                0x00000000000083b0       0x8c arch/arm/mach-bcm283x/built-in.o
                0x00000000000083e0                efi_reset_system
 .text.efi_runtime
                0x000000000000843c      0x23c lib/built-in.o
                0x0000000000008440                efi_get_time
                0x0000000000008448                efi_set_time
                0x0000000000008468                efi_update_capsule
                0x0000000000008470                efi_query_capsule_caps
                0x0000000000008548                efi_update_table_header_crc32
                0x0000000000008584                efi_query_variable_info
                0x000000000000858c                crc32_no_comp
                0x0000000000008664                crc32
 .text.efi_runtime_detach
                0x0000000000008678       0x34 lib/built-in.o
                0x0000000000008678                efi_runtime_detach
 .text.efi_runtime_relocate
                0x00000000000086ac      0x174 lib/built-in.o
                0x00000000000086ac                efi_runtime_relocate
 *(.rodata.efi_runtime*)
 .rodata.efi_runtime_relocate.str1.1
                0x0000000000008820       0x4e lib/built-in.o
 *(.data.efi_runtime*)
 *fill*         0x000000000000886e        0x2 
 .data.efi_runtime
                0x0000000000008870        0x4 arch/arm/mach-bcm283x/built-in.o
                0x0000000000008870                wdog_regs
 *fill*         0x0000000000008874        0x4 
 .data.efi_runtime
                0x0000000000008878      0x4c8 lib/built-in.o
                0x0000000000008878                efi_events
                0x0000000000008880                systab
                0x00000000000088f0                efi_runtime_services
 .data.efi_runtime_mmio
                0x0000000000008d40        0x8 lib/built-in.o
                0x0000000000008d40                efi_runtime_mmio

.__efi_runtime_stop
                0x0000000000008d48        0x0
 *(.__efi_runtime_stop)
 .__efi_runtime_stop
                0x0000000000008d48        0x0 arch/arm/lib/built-in.o

.text_rest      0x0000000000008d60    0x505f8
 *(.text*)
 .text          0x0000000000008d60      0x158 arch/arm/cpu/armv7/built-in.o
                0x0000000000008d60                __v7_flush_dcache_all
                0x0000000000008df4                v7_flush_dcache_all
                0x0000000000008e04                __v7_invalidate_dcache_all
                0x0000000000008e98                v7_invalidate_dcache_all
                0x0000000000008ea8                allow_unaligned
 .text.invalidate_icache_all
                0x0000000000008eb8       0x18 arch/arm/cpu/armv7/built-in.o
                0x0000000000008eb8                invalidate_icache_all
 .text.v7_outer_cache_enable
                0x0000000000008ed0        0x4 arch/arm/cpu/armv7/built-in.o
                0x0000000000008ed0                v7_outer_cache_enable
 .text.v7_outer_cache_disable
                0x0000000000008ed4        0x4 arch/arm/cpu/armv7/built-in.o
                0x0000000000008ed4                v7_outer_cache_disable
 .text.v7_outer_cache_flush_all
                0x0000000000008ed8        0x4 arch/arm/cpu/armv7/built-in.o
                0x0000000000008ed8                v7_outer_cache_flush_all
 .text.flush_dcache_all
                0x0000000000008edc       0x10 arch/arm/cpu/armv7/built-in.o
                0x0000000000008edc                flush_dcache_all
 .text.v7_outer_cache_inval_all
                0x0000000000008eec        0x4 arch/arm/cpu/armv7/built-in.o
                0x0000000000008eec                v7_outer_cache_inval_all
 .text.invalidate_dcache_all
                0x0000000000008ef0       0x10 arch/arm/cpu/armv7/built-in.o
                0x0000000000008ef0                invalidate_dcache_all
 .text.arm_init_before_mmu
                0x0000000000008f00       0x28 arch/arm/cpu/armv7/built-in.o
                0x0000000000008f00                arm_init_before_mmu
 .text.v7_outer_cache_flush_range
                0x0000000000008f28        0x4 arch/arm/cpu/armv7/built-in.o
                0x0000000000008f28                v7_outer_cache_flush_range
 .text.flush_dcache_range
                0x0000000000008f2c       0x54 arch/arm/cpu/armv7/built-in.o
                0x0000000000008f2c                flush_dcache_range
 .text.mmu_page_table_flush
                0x0000000000008f80       0x24 arch/arm/cpu/armv7/built-in.o
                0x0000000000008f80                mmu_page_table_flush
 .text.v7_outer_cache_inval_range
                0x0000000000008fa4        0x4 arch/arm/cpu/armv7/built-in.o
                0x0000000000008fa4                v7_outer_cache_inval_range
 .text.invalidate_dcache_range
                0x0000000000008fa8       0x64 arch/arm/cpu/armv7/built-in.o
                0x0000000000008fa8                invalidate_dcache_range
 .text.cpu_cache_initialization
                0x000000000000900c        0x4 arch/arm/cpu/armv7/built-in.o
                0x000000000000900c                cpu_cache_initialization
 .text.cleanup_before_linux_select
                0x0000000000009010       0x4c arch/arm/cpu/armv7/built-in.o
                0x0000000000009010                cleanup_before_linux_select
 .text.cleanup_before_linux
                0x000000000000905c        0x8 arch/arm/cpu/armv7/built-in.o
                0x000000000000905c                cleanup_before_linux
 *fill*         0x0000000000009064       0x1c 
 .text          0x0000000000009080      0x52c arch/arm/lib/built-in.o
                0x0000000000009080                _main
                0x0000000000009120                memset
                0x00000000000091fc                memcpy
 .text.setjmp   0x00000000000095ac       0x10 arch/arm/lib/built-in.o
                0x00000000000095ac                setjmp
 .text.longjmp  0x00000000000095bc       0x1c arch/arm/lib/built-in.o
                0x00000000000095bc                longjmp
 .text.relocate_vectors
                0x00000000000095d8       0x70 arch/arm/lib/built-in.o
                0x00000000000095d8                relocate_vectors
                0x00000000000095e4                relocate_code
 .text.arch_fixup_fdt
                0x0000000000009648       0x34 arch/arm/lib/built-in.o
                0x0000000000009648                arch_fixup_fdt
 .text.setup_initrd_tag.isra.0
                0x000000000000967c       0x40 arch/arm/lib/built-in.o
 .text.arch_lmb_reserve
                0x00000000000096bc       0x64 arch/arm/lib/built-in.o
                0x00000000000096bc                arch_lmb_reserve
 .text.board_quiesce_devices
                0x0000000000009720        0x4 arch/arm/lib/built-in.o
                0x0000000000009720                board_quiesce_devices
 .text.boot_jump_linux
                0x0000000000009724       0xd0 arch/arm/lib/built-in.o
 .text.setup_board_tags
                0x00000000000097f4        0x4 arch/arm/lib/built-in.o
                0x00000000000097f4                setup_board_tags
 .text.board_prep_linux
                0x00000000000097f8        0x4 arch/arm/lib/built-in.o
                0x00000000000097f8                board_prep_linux
 .text.boot_prep_linux
                0x00000000000097fc      0x18c arch/arm/lib/built-in.o
 .text.do_bootm_linux
                0x0000000000009988       0x64 arch/arm/lib/built-in.o
                0x0000000000009988                do_bootm_linux
 .text.boot_prep_vxworks
                0x00000000000099ec       0x4c arch/arm/lib/built-in.o
                0x00000000000099ec                boot_prep_vxworks
 .text.boot_jump_vxworks
                0x0000000000009a38        0xc arch/arm/lib/built-in.o
                0x0000000000009a38                boot_jump_vxworks
 .text.bootz_setup
                0x0000000000009a44       0xb4 arch/arm/lib/built-in.o
                0x0000000000009a44                bootz_setup
 .text.arch_reserve_stacks
                0x0000000000009af8       0x1c arch/arm/lib/built-in.o
                0x0000000000009af8                arch_reserve_stacks
 .text.interrupt_init
                0x0000000000009b14       0x1c arch/arm/lib/built-in.o
                0x0000000000009b14                interrupt_init
 .text.enable_interrupts
                0x0000000000009b30        0x4 arch/arm/lib/built-in.o
                0x0000000000009b30                enable_interrupts
 .text.disable_interrupts
                0x0000000000009b34        0x8 arch/arm/lib/built-in.o
                0x0000000000009b34                disable_interrupts
 .text.bad_mode
                0x0000000000009b3c       0x10 arch/arm/lib/built-in.o
                0x0000000000009b3c                bad_mode
 .text.show_regs
                0x0000000000009b4c      0x1cc arch/arm/lib/built-in.o
                0x0000000000009b4c                show_regs
 .text.do_undefined_instruction
                0x0000000000009d18       0x38 arch/arm/lib/built-in.o
                0x0000000000009d18                do_undefined_instruction
 .text.do_software_interrupt
                0x0000000000009d50       0x38 arch/arm/lib/built-in.o
                0x0000000000009d50                do_software_interrupt
 .text.do_prefetch_abort
                0x0000000000009d88       0x38 arch/arm/lib/built-in.o
                0x0000000000009d88                do_prefetch_abort
 .text.do_data_abort
                0x0000000000009dc0       0x38 arch/arm/lib/built-in.o
                0x0000000000009dc0                do_data_abort
 .text.do_not_used
                0x0000000000009df8       0x38 arch/arm/lib/built-in.o
                0x0000000000009df8                do_not_used
 .text.do_fiq   0x0000000000009e30       0x38 arch/arm/lib/built-in.o
                0x0000000000009e30                do_fiq
 .text.do_irq   0x0000000000009e68       0x38 arch/arm/lib/built-in.o
                0x0000000000009e68                do_irq
 .text.reset_misc
                0x0000000000009ea0        0x4 arch/arm/lib/built-in.o
                0x0000000000009ea0                reset_misc
 .text.do_reset
                0x0000000000009ea4       0x30 arch/arm/lib/built-in.o
                0x0000000000009ea4                do_reset
 .text.flush_cache
                0x0000000000009ed4        0x8 arch/arm/lib/built-in.o
                0x0000000000009ed4                flush_cache
 .text.check_cache_range
                0x0000000000009edc       0x34 arch/arm/lib/built-in.o
                0x0000000000009edc                check_cache_range
 .text.arm_reserve_mmu
                0x0000000000009f10       0x38 arch/arm/lib/built-in.o
                0x0000000000009f10                arm_reserve_mmu
 .text.arch_reserve_mmu
                0x0000000000009f48        0x4 arch/arm/lib/built-in.o
                0x0000000000009f48                arch_reserve_mmu
 .text.cache_disable
                0x0000000000009f4c       0x88 arch/arm/lib/built-in.o
 .text.arm_init_domains
                0x0000000000009fd4        0x4 arch/arm/lib/built-in.o
                0x0000000000009fd4                arm_init_domains
 .text.set_section_dcache
                0x0000000000009fd8       0x1c arch/arm/lib/built-in.o
                0x0000000000009fd8                set_section_dcache
 .text.mmu_set_region_dcache_behaviour
                0x0000000000009ff4       0x5c arch/arm/lib/built-in.o
                0x0000000000009ff4                mmu_set_region_dcache_behaviour
 .text.dram_bank_mmu_setup
                0x000000000000a050       0x4c arch/arm/lib/built-in.o
                0x000000000000a050                dram_bank_mmu_setup
 .text.cache_enable
                0x000000000000a09c      0x170 arch/arm/lib/built-in.o
 .text.icache_enable
                0x000000000000a20c        0x8 arch/arm/lib/built-in.o
                0x000000000000a20c                icache_enable
 .text.icache_disable
                0x000000000000a214        0x8 arch/arm/lib/built-in.o
                0x000000000000a214                icache_disable
 .text.dcache_enable
                0x000000000000a21c        0x8 arch/arm/lib/built-in.o
                0x000000000000a21c                dcache_enable
 .text.dcache_disable
                0x000000000000a224        0x8 arch/arm/lib/built-in.o
                0x000000000000a224                dcache_disable
 .text.dcache_status
                0x000000000000a22c       0x24 arch/arm/lib/built-in.o
                0x000000000000a22c                dcache_status
 .text.arch_cpu_init
                0x000000000000a250       0x10 arch/arm/mach-bcm283x/built-in.o
                0x000000000000a250                arch_cpu_init
 .text.mach_cpu_init
                0x000000000000a260       0x5c arch/arm/mach-bcm283x/built-in.o
                0x000000000000a260                mach_cpu_init
 .text.enable_caches
                0x000000000000a2bc        0x4 arch/arm/mach-bcm283x/built-in.o
                0x000000000000a2bc                enable_caches
 .text.reset_cpu
                0x000000000000a2c0       0x4c arch/arm/mach-bcm283x/built-in.o
                0x000000000000a2c0                reset_cpu
 .text.efi_reset_system_init
                0x000000000000a30c       0x60 arch/arm/mach-bcm283x/built-in.o
                0x000000000000a30c                efi_reset_system_init
 .text.bcm2835_mbox_call_raw
                0x000000000000a36c      0x14c arch/arm/mach-bcm283x/built-in.o
                0x000000000000a36c                bcm2835_mbox_call_raw
 .text.bcm2835_mbox_call_prop
                0x000000000000a4b8       0xe8 arch/arm/mach-bcm283x/built-in.o
                0x000000000000a4b8                bcm2835_mbox_call_prop
 .text.bcm2835_power_on_module
                0x000000000000a5a0       0x84 arch/arm/mach-bcm283x/built-in.o
                0x000000000000a5a0                bcm2835_power_on_module
 .text.bcm2835_get_mmc_clock
                0x000000000000a624       0x90 arch/arm/mach-bcm283x/built-in.o
                0x000000000000a624                bcm2835_get_mmc_clock
 .text.bcm2835_get_video_size
                0x000000000000a6b4       0x8c arch/arm/mach-bcm283x/built-in.o
                0x000000000000a6b4                bcm2835_get_video_size
 .text.bcm2835_set_video_params
                0x000000000000a740      0x1a8 arch/arm/mach-bcm283x/built-in.o
                0x000000000000a740                bcm2835_set_video_params
 .text.phys_to_bus
                0x000000000000a8e8        0x8 arch/arm/mach-bcm283x/built-in.o
                0x000000000000a8e8                phys_to_bus
 .text.bus_to_phys
                0x000000000000a8f0        0x8 arch/arm/mach-bcm283x/built-in.o
                0x000000000000a8f0                bus_to_phys
 .text          0x000000000000a8f8       0x10 board/raspberrypi/rpi/built-in.o
                0x000000000000a8f8                save_boot_params
 .text.dram_init
                0x000000000000a908       0x7c board/raspberrypi/rpi/built-in.o
                0x000000000000a908                dram_init
 .text.board_get_usable_ram_top
                0x000000000000a984       0x28 board/raspberrypi/rpi/built-in.o
                0x000000000000a984                board_get_usable_ram_top
 .text.misc_init_r
                0x000000000000a9ac      0x280 board/raspberrypi/rpi/built-in.o
                0x000000000000a9ac                misc_init_r
 .text.board_init
                0x000000000000ac2c      0x14c board/raspberrypi/rpi/built-in.o
                0x000000000000ac2c                board_init
 .text.ft_board_setup
                0x000000000000ad78       0x34 board/raspberrypi/rpi/built-in.o
                0x000000000000ad78                ft_board_setup
 .text.do_go_exec
                0x000000000000adac       0x10 cmd/built-in.o
                0x000000000000adac                do_go_exec
 .text.do_go    0x000000000000adbc       0x6c cmd/built-in.o
 .text.do_bootm
                0x000000000000ae28      0x110 cmd/built-in.o
                0x000000000000ae28                do_bootm
 .text.do_bootd
                0x000000000000af38       0x20 cmd/built-in.o
                0x000000000000af38                do_bootd
 .text.image_info
                0x000000000000af58       0xcc cmd/built-in.o
 .text.do_iminfo
                0x000000000000b024       0x54 cmd/built-in.o
 .text.bootm_maybe_autostart
                0x000000000000b078       0x78 cmd/built-in.o
                0x000000000000b078                bootm_maybe_autostart
 .text.do_help  0x000000000000b0f0       0x44 cmd/built-in.o
 .text.do_version
                0x000000000000b134       0x40 cmd/built-in.o
 .text.blk_common_cmd
                0x000000000000b174      0x314 cmd/built-in.o
                0x000000000000b174                blk_common_cmd
 .text.image_source_script
                0x000000000000b488       0xd8 cmd/built-in.o
                0x000000000000b488                image_source_script
 .text.do_source
                0x000000000000b560       0x44 cmd/built-in.o
 .text.print_num
                0x000000000000b5a4       0x18 cmd/built-in.o
 .text.do_bdinfo
                0x000000000000b5bc      0x10c cmd/built-in.o
 .text.do_blkcache
                0x000000000000b6c8       0x68 cmd/built-in.o
 .text.blkc_configure
                0x000000000000b730       0x68 cmd/built-in.o
 .text.blkc_show
                0x000000000000b798       0x40 cmd/built-in.o
 .text.efi_reserve_memory
                0x000000000000b7d8       0x78 cmd/built-in.o
 .text.do_bootefi_exec
                0x000000000000b850      0x1c4 cmd/built-in.o
 .text.efi_install_fdt
                0x000000000000ba14      0x338 cmd/built-in.o
                0x000000000000ba14                efi_install_fdt
 .text.efi_run_image
                0x000000000000bd4c       0xf8 cmd/built-in.o
                0x000000000000bd4c                efi_run_image
 .text.do_bootefi
                0x000000000000be44      0x118 cmd/built-in.o
 .text.efi_set_bootdev
                0x000000000000bf5c       0xa4 cmd/built-in.o
                0x000000000000bf5c                efi_set_bootdev
 .text.do_bootz
                0x000000000000c000       0xfc cmd/built-in.o
                0x000000000000c000                do_bootz
 .text.do_coninfo
                0x000000000000c0fc       0xc0 cmd/built-in.o
 .text.do_dm_dump_devres
                0x000000000000c1bc        0x8 cmd/built-in.o
 .text.do_dm    0x000000000000c1c4       0x74 cmd/built-in.o
 .text.do_dm_dump_drivers
                0x000000000000c238       0x10 cmd/built-in.o
 .text.do_dm_dump_uclass
                0x000000000000c248       0x10 cmd/built-in.o
 .text.do_dm_dump_all
                0x000000000000c258       0x10 cmd/built-in.o
 .text.do_echo  0x000000000000c268       0xb4 cmd/built-in.o
 .text.do_bootelf
                0x000000000000c31c      0x14c cmd/built-in.o
                0x000000000000c31c                do_bootelf
 .text.do_bootvx
                0x000000000000c468      0x310 cmd/built-in.o
                0x000000000000c468                do_bootvx
 .text.do_exit  0x000000000000c778       0x48 cmd/built-in.o
 .text.do_ext4_size
                0x000000000000c7c0       0x18 cmd/built-in.o
                0x000000000000c7c0                do_ext4_size
 .text.do_ext4_load
                0x000000000000c7d8       0x18 cmd/built-in.o
                0x000000000000c7d8                do_ext4_load
 .text.do_ext4_ls
                0x000000000000c7f0       0x18 cmd/built-in.o
                0x000000000000c7f0                do_ext4_ls
 .text.do_ext2load
                0x000000000000c808       0x18 cmd/built-in.o
                0x000000000000c808                do_ext2load
 .text.do_ext2ls
                0x000000000000c820       0x18 cmd/built-in.o
 .text.do_fat_size
                0x000000000000c838       0x18 cmd/built-in.o
                0x000000000000c838                do_fat_size
 .text.do_fat_fsload
                0x000000000000c850       0x18 cmd/built-in.o
                0x000000000000c850                do_fat_fsload
 .text.do_fat_ls
                0x000000000000c868       0x18 cmd/built-in.o
 .text.do_fat_fsinfo
                0x000000000000c880       0x8c cmd/built-in.o
 .text.do_fat_fswrite
                0x000000000000c90c      0x148 cmd/built-in.o
 .text.do_fat_rm
                0x000000000000ca54       0x18 cmd/built-in.o
 .text.do_fat_mkdir
                0x000000000000ca6c       0x18 cmd/built-in.o
 .text.fdt_valid
                0x000000000000ca84       0xbc cmd/built-in.o
 .text.is_printable_string
                0x000000000000cb40       0x88 cmd/built-in.o
 .text.print_data
                0x000000000000cbc8      0x170 cmd/built-in.o
 .text.set_working_fdt_addr
                0x000000000000cd38       0x1c cmd/built-in.o
                0x000000000000cd38                set_working_fdt_addr
 .text.do_fdt   0x000000000000cd54     0x104c cmd/built-in.o
 .text.do_size_wrapper
                0x000000000000dda0       0x18 cmd/built-in.o
 .text.do_load_wrapper
                0x000000000000ddb8       0x18 cmd/built-in.o
 .text.do_save_wrapper
                0x000000000000ddd0       0x18 cmd/built-in.o
 .text.do_ls_wrapper
                0x000000000000dde8       0x18 cmd/built-in.o
 .text.do_ln_wrapper
                0x000000000000de00       0x18 cmd/built-in.o
 .text.do_fstype_wrapper
                0x000000000000de18        0x4 cmd/built-in.o
 .text.gpio_get_description
                0x000000000000de1c       0xd8 cmd/built-in.o
 .text.do_gpio  0x000000000000def4      0x390 cmd/built-in.o
 .text.evalexp  0x000000000000e284       0x7c cmd/built-in.o
 .text.evalstr  0x000000000000e300       0x64 cmd/built-in.o
 .text.binary_test
                0x000000000000e364      0x1a4 cmd/built-in.o
 .text.do_itest
                0x000000000000e508       0x7c cmd/built-in.o
 .text.bin_data_init
                0x000000000000e584       0x2c cmd/built-in.o
 .text.k_data_save
                0x000000000000e5b0       0x4c cmd/built-in.o
 .text.k_data_restore
                0x000000000000e5fc       0x4c cmd/built-in.o
 .text.getcxmodem
                0x000000000000e648       0x20 cmd/built-in.o
 .text.load_serial_ymodem
                0x000000000000e668       0xcc cmd/built-in.o
 .text.bin_data_char
                0x000000000000e734       0x30 cmd/built-in.o
 .text.chk1.constprop.0
                0x000000000000e764       0x30 cmd/built-in.o
 .text.s1_sendpacket.constprop.0
                0x000000000000e794       0x4c cmd/built-in.o
 .text.load_serial
                0x000000000000e7e0      0x1c4 cmd/built-in.o
 .text.do_load_serial
                0x000000000000e9a4       0xd4 cmd/built-in.o
 .text.do_load_serial_bin
                0x000000000000ea78      0x788 cmd/built-in.o
 .text.do_mem_md
                0x000000000000f200       0xe8 cmd/built-in.o
 .text.do_mem_base
                0x000000000000f2e8       0x40 cmd/built-in.o
 .text.do_mem_crc
                0x000000000000f328       0x40 cmd/built-in.o
 .text.do_mem_mw
                0x000000000000f368       0xc0 cmd/built-in.o
 .text.do_mem_loop
                0x000000000000f428       0xe8 cmd/built-in.o
 .text.do_mem_cmp
                0x000000000000f510      0x150 cmd/built-in.o
 .text.mod_mem.isra.0.part.0
                0x000000000000f660      0x164 cmd/built-in.o
 .text.do_mem_mm
                0x000000000000f7c4       0x1c cmd/built-in.o
 .text.do_mem_cp
                0x000000000000f7e0       0xa8 cmd/built-in.o
 .text.do_mem_nm
                0x000000000000f888       0x1c cmd/built-in.o
 .text.extract_range
                0x000000000000f8a4       0xe0 cmd/built-in.o
 .text.dump_field
                0x000000000000f984       0x58 cmd/built-in.o
 .text.do_mii   0x000000000000f9dc      0x854 cmd/built-in.o
 .text.do_mdio  0x0000000000010230      0x7ac cmd/built-in.o
 .text.do_sleep
                0x00000000000109dc       0xd4 cmd/built-in.o
 .text.do_mmcops
                0x0000000000010ab0       0xc8 cmd/built-in.o
 .text.init_mmc_device
                0x0000000000010b78       0x70 cmd/built-in.o
 .text.do_mmc_rescan
                0x0000000000010be8       0x24 cmd/built-in.o
 .text.do_mmc_hwpartition
                0x0000000000010c0c      0x508 cmd/built-in.o
 .text.do_mmc_list
                0x0000000000011114       0x14 cmd/built-in.o
 .text.do_mmc_dev
                0x0000000000011128      0x130 cmd/built-in.o
 .text.do_mmc_boot_wp
                0x0000000000011258       0x64 cmd/built-in.o
 .text.print_mmcinfo
                0x00000000000112bc      0x3d4 cmd/built-in.o
 .text.do_mmcinfo
                0x0000000000011690       0x60 cmd/built-in.o
 .text.do_mmc_setdsr
                0x00000000000116f0       0xa4 cmd/built-in.o
 .text.do_mmc_part
                0x0000000000011794       0x60 cmd/built-in.o
 .text.do_mmc_erase
                0x00000000000117f4       0xe8 cmd/built-in.o
 .text.do_mmc_write
                0x00000000000118dc      0x100 cmd/built-in.o
 .text.do_mmc_read
                0x00000000000119dc       0xe0 cmd/built-in.o
 .text.netboot_common
                0x0000000000011abc      0x2bc cmd/built-in.o
 .text.do_bootp
                0x0000000000011d78        0xc cmd/built-in.o
 .text.do_dhcp  0x0000000000011d84        0xc cmd/built-in.o
 .text.do_nfs   0x0000000000011d90        0xc cmd/built-in.o
 .text.do_tftpb
                0x0000000000011d9c       0x40 cmd/built-in.o
                0x0000000000011d9c                do_tftpb
 .text.do_ping  0x0000000000011ddc       0x78 cmd/built-in.o
 .text.do_part_list
                0x0000000000011e54      0x178 cmd/built-in.o
 .text.do_part_info
                0x0000000000011fcc      0x11c cmd/built-in.o
 .text.do_part  0x00000000000120e8      0x128 cmd/built-in.o
 .text.do_pinmux
                0x0000000000012210       0x64 cmd/built-in.o
 .text.do_list  0x0000000000012274       0xb8 cmd/built-in.o
 .text.show_pinmux
                0x000000000001232c       0xd4 cmd/built-in.o
 .text.do_status
                0x0000000000012400       0xfc cmd/built-in.o
 .text.do_dev   0x00000000000124fc       0x88 cmd/built-in.o
 .text.do_pxe   0x0000000000012584       0x7c cmd/built-in.o
 .text.do_pxe_boot
                0x0000000000012600       0xe0 cmd/built-in.o
 .text.do_get_tftp
                0x00000000000126e0       0x40 cmd/built-in.o
 .text.do_pxe_get
                0x0000000000012720      0x164 cmd/built-in.o
 .text.eol_or_eof
                0x0000000000012884       0x20 cmd/built-in.o
 .text.label_print
                0x00000000000128a4       0x1c cmd/built-in.o
 .text.label_destroy
                0x00000000000128c0       0x84 cmd/built-in.o
 .text.get_string
                0x0000000000012944       0xc4 cmd/built-in.o
 .text.get_token
                0x0000000000012a08      0x114 cmd/built-in.o
 .text.parse_sliteral
                0x0000000000012b1c       0x54 cmd/built-in.o
 .text.parse_integer
                0x0000000000012b70       0x70 cmd/built-in.o
 .text.get_relfile
                0x0000000000012be0      0x138 cmd/built-in.o
 .text.get_relfile_envaddr
                0x0000000000012d18       0x50 cmd/built-in.o
 .text.format_mac_pxe
                0x0000000000012d68       0x90 cmd/built-in.o
                0x0000000000012d68                format_mac_pxe
 .text.label_boot
                0x0000000000012df8      0x650 cmd/built-in.o
 .text.get_pxe_file
                0x0000000000013448       0x58 cmd/built-in.o
                0x0000000000013448                get_pxe_file
 .text.handle_include
                0x00000000000134a0       0xa4 cmd/built-in.o
 .text.parse_pxefile_top
                0x0000000000013544      0x4c4 cmd/built-in.o
 .text.get_pxelinux_path
                0x0000000000013a08       0x7c cmd/built-in.o
                0x0000000000013a08                get_pxelinux_path
 .text.destroy_pxe_menu
                0x0000000000013a84       0x5c cmd/built-in.o
                0x0000000000013a84                destroy_pxe_menu
 .text.parse_pxefile
                0x0000000000013ae0       0x70 cmd/built-in.o
                0x0000000000013ae0                parse_pxefile
 .text.handle_pxe_menu
                0x0000000000013b50      0x178 cmd/built-in.o
                0x0000000000013b50                handle_pxe_menu
 .text.substitute
                0x0000000000013cc8       0xf4 cmd/built-in.o
 .text.get_arg  0x0000000000013dbc       0x58 cmd/built-in.o
 .text.regex_sub.part.0
                0x0000000000013e14      0x45c cmd/built-in.o
 .text.do_setexpr
                0x0000000000014270      0x1a8 cmd/built-in.o
 .text.do_sysboot
                0x0000000000014418      0x1e8 cmd/built-in.o
 .text.do_get_any
                0x0000000000014600       0x44 cmd/built-in.o
 .text.do_get_fat
                0x0000000000014644       0x3c cmd/built-in.o
 .text.do_get_ext2
                0x0000000000014680       0x3c cmd/built-in.o
 .text.do_false
                0x00000000000146bc        0x8 cmd/built-in.o
 .text.do_true  0x00000000000146c4        0x8 cmd/built-in.o
 .text.do_test  0x00000000000146cc      0x338 cmd/built-in.o
 .text.usb_get_class_desc
                0x0000000000014a04       0xc8 cmd/built-in.o
 .text.usb_display_class_sub
                0x0000000000014acc      0x174 cmd/built-in.o
 .text.usb_display_desc
                0x0000000000014c40      0x150 cmd/built-in.o
 .text.usb_show_tree_graph
                0x0000000000014d90      0x228 cmd/built-in.o
 .text.usb_show_subtree
                0x0000000000014fb8       0x30 cmd/built-in.o
 .text.usb_for_each_root_dev
                0x0000000000014fe8       0x6c cmd/built-in.o
 .text.usb_display_string
                0x0000000000015054       0x44 cmd/built-in.o
 .text.usb_display_config
                0x0000000000015098      0x210 cmd/built-in.o
 .text.usb_show_info
                0x00000000000152a8       0x74 cmd/built-in.o
 .text.usb_find_device
                0x000000000001531c       0xb4 cmd/built-in.o
 .text.do_usbboot
                0x00000000000153d0        0xc cmd/built-in.o
 .text.do_usb_start
                0x00000000000153dc       0x30 cmd/built-in.o
 .text.usb_show_tree
                0x000000000001540c        0xc cmd/built-in.o
                0x000000000001540c                usb_show_tree
 .text.do_usb   0x0000000000015418      0x3ec cmd/built-in.o
 .text.common_diskboot
                0x0000000000015804      0x228 cmd/built-in.o
                0x0000000000015804                common_diskboot
 .text.do_fs_uuid_wrapper
                0x0000000000015a2c       0x18 cmd/built-in.o
 .text.do_imgextract
                0x0000000000015a44      0x28c cmd/built-in.o
 .text.do_env_delete
                0x0000000000015cd0       0xa4 cmd/built-in.o
 .text.do_env_save
                0x0000000000015d74       0x14 cmd/built-in.o
 .text.do_env   0x0000000000015d88       0x68 cmd/built-in.o
 .text.env_print
                0x0000000000015df0       0xc4 cmd/built-in.o
 .text.do_env_print
                0x0000000000015eb4       0xc0 cmd/built-in.o
 .text.do_env_import
                0x0000000000015f74      0x298 cmd/built-in.o
 .text.do_env_default
                0x000000000001620c       0xa0 cmd/built-in.o
 .text.do_env_exists
                0x00000000000162ac       0x64 cmd/built-in.o
 .text._do_env_set.isra.0
                0x0000000000016310      0x1b0 cmd/built-in.o
 .text.do_env_set
                0x00000000000164c0       0x20 cmd/built-in.o
 .text.env_get_id
                0x00000000000164e0       0x10 cmd/built-in.o
                0x00000000000164e0                env_get_id
 .text.env_set  0x00000000000164f0       0x60 cmd/built-in.o
                0x00000000000164f0                env_set
 .text.env_set_ulong
                0x0000000000016550       0x20 cmd/built-in.o
                0x0000000000016550                env_set_ulong
 .text.env_set_hex
                0x0000000000016570       0x34 cmd/built-in.o
                0x0000000000016570                env_set_hex
 .text.do_env_export
                0x00000000000165a4      0x220 cmd/built-in.o
 .text.env_match
                0x00000000000167c4       0x6c cmd/built-in.o
                0x00000000000167c4                env_match
 .text.env_get_f
                0x0000000000016830       0xd4 cmd/built-in.o
                0x0000000000016830                env_get_f
 .text.env_get  0x0000000000016904       0x78 cmd/built-in.o
                0x0000000000016904                env_get
 .text.env_get_hex
                0x000000000001697c       0x38 cmd/built-in.o
                0x000000000001697c                env_get_hex
 .text.eth_env_get_enetaddr
                0x00000000000169b4       0x5c cmd/built-in.o
                0x00000000000169b4                eth_env_get_enetaddr
 .text.eth_env_set_enetaddr
                0x0000000000016a10       0x4c cmd/built-in.o
                0x0000000000016a10                eth_env_set_enetaddr
 .text.from_env
                0x0000000000016a5c       0x2c cmd/built-in.o
                0x0000000000016a5c                from_env
 .text.env_get_ulong
                0x0000000000016a88       0x30 cmd/built-in.o
                0x0000000000016a88                env_get_ulong
 .text.do_env_edit.part.0
                0x0000000000016ab8       0xb4 cmd/built-in.o
 .text.do_env_edit
                0x0000000000016b6c       0x2c cmd/built-in.o
 .text.board_init_f_alloc_reserve
                0x0000000000016b98       0x10 common/built-in.o
                0x0000000000016b98                board_init_f_alloc_reserve
 .text.board_init_f_init_reserve
                0x0000000000016ba8       0x20 common/built-in.o
                0x0000000000016ba8                board_init_f_init_reserve
 .text.show_boot_progress
                0x0000000000016bc8        0x4 common/built-in.o
                0x0000000000016bc8                show_boot_progress
 .text.main_loop
                0x0000000000016bcc       0x68 common/built-in.o
                0x0000000000016bcc                main_loop
 .text.mdelay   0x0000000000016c34        0xc common/built-in.o
 .text.dummy    0x0000000000016c40        0x4 common/built-in.o
 .text.get_version
                0x0000000000016c44        0x8 common/built-in.o
                0x0000000000016c44                get_version
 .text.jumptable_init
                0x0000000000016c4c      0x1d8 common/built-in.o
                0x0000000000016c4c                jumptable_init
 .text.hash_command
                0x0000000000016e24       0xb0 common/built-in.o
                0x0000000000016e24                hash_command
 .text.b_reset  0x0000000000016ed4       0x1c common/built-in.o
 .text.static_get
                0x0000000000016ef0       0x1c common/built-in.o
 .text.static_peek
                0x0000000000016f0c        0xc common/built-in.o
 .text.mapset   0x0000000000016f18       0x20 common/built-in.o
 .text.syntax_err
                0x0000000000016f38        0xc common/built-in.o
 .text.free_pipe_list
                0x0000000000016f44       0xe8 common/built-in.o
 .text.xmalloc  0x000000000001702c       0x20 common/built-in.o
 .text.new_pipe
                0x000000000001704c       0x28 common/built-in.o
 .text.xrealloc
                0x0000000000017074       0x20 common/built-in.o
 .text.done_command
                0x0000000000017094       0x88 common/built-in.o
 .text.done_pipe
                0x000000000001711c       0x4c common/built-in.o
 .text.done_word
                0x0000000000017168      0x2d4 common/built-in.o
 .text.is_assignment
                0x000000000001743c       0x5c common/built-in.o
 .text.file_get
                0x0000000000017498      0x1e0 common/built-in.o
 .text.do_showvar
                0x0000000000017678      0x104 common/built-in.o
 .text.b_addchr
                0x000000000001777c       0x80 common/built-in.o
 .text.b_addqchr
                0x00000000000177fc       0x50 common/built-in.o
 .text.file_peek
                0x000000000001784c        0xc common/built-in.o
 .text.get_local_var
                0x0000000000017858       0x94 common/built-in.o
                0x0000000000017858                get_local_var
 .text.set_local_var
                0x00000000000178ec      0x1a0 common/built-in.o
                0x00000000000178ec                set_local_var
 .text.insert_var_value_sub
                0x0000000000017a8c      0x2b4 common/built-in.o
 .text.parse_string_outer
                0x0000000000017d40       0xe4 common/built-in.o
                0x0000000000017d40                parse_string_outer
 .text.run_list_real
                0x0000000000017e24      0x7a4 common/built-in.o
 .text.parse_stream_outer
                0x00000000000185c8      0x6b0 common/built-in.o
 .text.parse_file_outer
                0x0000000000018c78       0x44 common/built-in.o
                0x0000000000018c78                parse_file_outer
 .text.u_boot_hush_start
                0x0000000000018cbc       0x54 common/built-in.o
                0x0000000000018cbc                u_boot_hush_start
 .text.bootdelay_process
                0x0000000000018d10       0xbc common/built-in.o
                0x0000000000018d10                bootdelay_process
 .text.autoboot_command
                0x0000000000018dcc       0xf4 common/built-in.o
                0x0000000000018dcc                autoboot_command
 .text.log_init
                0x0000000000018ec0       0x10 common/built-in.o
 .text.display_text_info
                0x0000000000018ed0        0x8 common/built-in.o
 .text.setup_mon_len
                0x0000000000018ed8       0x20 common/built-in.o
 .text.reserve_round_4k
                0x0000000000018ef8       0x18 common/built-in.o
 .text.reserve_uboot
                0x0000000000018f10       0x40 common/built-in.o
 .text.dram_init_banksize
                0x0000000000018f50       0x24 common/built-in.o
                0x0000000000018f50                dram_init_banksize
 .text.setup_reloc
                0x0000000000018f74       0x3c common/built-in.o
 .text.reserve_board
                0x0000000000018fb0       0x44 common/built-in.o
 .text.reserve_video
                0x0000000000018ff4       0x2c common/built-in.o
 .text.announce_dram_init
                0x0000000000019020       0x18 common/built-in.o
 .text.init_baud_rate
                0x0000000000019038       0x2c common/built-in.o
 .text.initf_dm
                0x0000000000019064        0x8 common/built-in.o
 .text.initf_bootstage
                0x000000000001906c       0x14 common/built-in.o
 .text.clear_bss
                0x0000000000019080        0x8 common/built-in.o
                0x0000000000019080                clear_bss
 .text.setup_spl_handoff
                0x0000000000019088        0x8 common/built-in.o
 .text.reserve_trace
                0x0000000000019090        0x8 common/built-in.o
 .text.setup_machine
                0x0000000000019098        0x8 common/built-in.o
 .text.reserve_fdt
                0x00000000000190a0        0x8 common/built-in.o
 .text.reserve_bootstage
                0x00000000000190a8        0x8 common/built-in.o
 .text.reserve_bloblist
                0x00000000000190b0        0x8 common/built-in.o
 .text.display_new_sp
                0x00000000000190b8        0x8 common/built-in.o
 .text.reloc_fdt
                0x00000000000190c0        0x8 common/built-in.o
 .text.reloc_bootstage
                0x00000000000190c8        0x8 common/built-in.o
 .text.reloc_bloblist
                0x00000000000190d0        0x8 common/built-in.o
 .text.initf_console_record
                0x00000000000190d8        0x8 common/built-in.o
 .text.reserve_arch
                0x00000000000190e0        0x8 common/built-in.o
                0x00000000000190e0                reserve_arch
 .text.arch_cpu_init_dm
                0x00000000000190e8        0x8 common/built-in.o
                0x00000000000190e8                arch_cpu_init_dm
 .text.checkcpu
                0x00000000000190f0        0x8 common/built-in.o
                0x00000000000190f0                checkcpu
 .text.reserve_malloc
                0x00000000000190f8       0x1c common/built-in.o
 .text.reserve_global_data
                0x0000000000019114       0x20 common/built-in.o
 .text.coloured_LED_init
                0x0000000000019134        0x4 common/built-in.o
                0x0000000000019134                coloured_LED_init
 .text.red_led_on
                0x0000000000019138        0x4 common/built-in.o
                0x0000000000019138                red_led_on
 .text.board_add_ram_info
                0x000000000001913c        0x4 common/built-in.o
                0x000000000001913c                board_add_ram_info
 .text.show_dram_config
                0x0000000000019140       0x38 common/built-in.o
 .text.setup_dest_addr
                0x0000000000019178       0x3c common/built-in.o
 .text.reserve_stacks
                0x00000000000191b4       0x14 common/built-in.o
 .text.board_init_f
                0x00000000000191c8       0x5c common/built-in.o
                0x00000000000191c8                board_init_f
 .text.initr_trace
                0x0000000000019224        0x8 common/built-in.o
 .text.initr_reloc
                0x000000000001922c       0x18 common/built-in.o
 .text.run_main_loop
                0x0000000000019244        0xc common/built-in.o
 .text.initr_net
                0x0000000000019250       0x1c common/built-in.o
 .text.initr_ethaddr
                0x000000000001926c       0x20 common/built-in.o
 .text.initr_jumptable
                0x000000000001928c       0x10 common/built-in.o
 .text.initr_env
                0x000000000001929c       0x64 common/built-in.o
 .text.initr_mmc
                0x0000000000019300       0x20 common/built-in.o
 .text.initr_serial
                0x0000000000019320       0x10 common/built-in.o
 .text.initr_dm
                0x0000000000019330       0x14 common/built-in.o
 .text.initr_bootstage
                0x0000000000019344       0x14 common/built-in.o
 .text.initr_malloc
                0x0000000000019358       0x24 common/built-in.o
 .text.initr_reloc_global_data
                0x000000000001937c       0x5c common/built-in.o
 .text.initr_caches
                0x00000000000193d8       0x10 common/built-in.o
 .text.initr_binman
                0x00000000000193e8        0x8 common/built-in.o
 .text.initr_barrier
                0x00000000000193f0        0x8 common/built-in.o
 .text.initr_console_record
                0x00000000000193f8        0x8 common/built-in.o
 .text.initr_dm_devices
                0x0000000000019400        0x8 common/built-in.o
 .text.power_init_board
                0x0000000000019408        0x8 common/built-in.o
                0x0000000000019408                power_init_board
 .text.initr_announce
                0x0000000000019410        0x8 common/built-in.o
 .text.cpu_secondary_init_r
                0x0000000000019418        0x4 common/built-in.o
                0x0000000000019418                cpu_secondary_init_r
 .text.initr_secondary_cpu
                0x000000000001941c       0x10 common/built-in.o
 .text.board_init_r
                0x000000000001942c       0x5c common/built-in.o
                0x000000000001942c                board_init_r
 .text.bootm_find_images
                0x0000000000019488       0xa8 common/built-in.o
                0x0000000000019488                bootm_find_images
 .text.bootm_disable_interrupts
                0x0000000000019530       0x18 common/built-in.o
                0x0000000000019530                bootm_disable_interrupts
 .text.do_bootm_states
                0x0000000000019548      0x780 common/built-in.o
                0x0000000000019548                do_bootm_states
 .text.switch_to_non_secure_mode
                0x0000000000019cc8        0x4 common/built-in.o
                0x0000000000019cc8                switch_to_non_secure_mode
 .text.do_bootm_vxworks
                0x0000000000019ccc      0x1fc common/built-in.o
                0x0000000000019ccc                do_bootm_vxworks
 .text.copy_args
                0x0000000000019ec8       0x48 common/built-in.o
 .text.do_bootm_rtems
                0x0000000000019f10       0x40 common/built-in.o
 .text.do_bootm_plan9
                0x0000000000019f50       0xa4 common/built-in.o
 .text.do_bootm_standalone
                0x0000000000019ff4       0x64 common/built-in.o
 .text.do_bootm_qnxelf
                0x000000000001a058       0x78 common/built-in.o
 .text.do_bootm_netbsd
                0x000000000001a0d0       0xf8 common/built-in.o
 .text.arch_preboot_os
                0x000000000001a1c8        0x4 common/built-in.o
                0x000000000001a1c8                arch_preboot_os
 .text.board_preboot_os
                0x000000000001a1cc        0x4 common/built-in.o
                0x000000000001a1cc                board_preboot_os
 .text.boot_selected_os
                0x000000000001a1d0       0x5c common/built-in.o
                0x000000000001a1d0                boot_selected_os
 .text.bootm_os_get_boot_func
                0x000000000001a22c       0x10 common/built-in.o
                0x000000000001a22c                bootm_os_get_boot_func
 .text.of_bus_default_map
                0x000000000001a23c       0xb8 common/built-in.o
 .text.fdt_read_prop
                0x000000000001a2f4       0x64 common/built-in.o
 .text.fdt_pack_reg
                0x000000000001a358       0xbc common/built-in.o
 .text.of_bus_default_translate
                0x000000000001a414       0x98 common/built-in.o
 .text.fdt_support_default_count_cells
                0x000000000001a4ac       0x58 common/built-in.o
                0x000000000001a4ac                fdt_support_default_count_cells
 .text.__of_translate_address
                0x000000000001a504      0x274 common/built-in.o
 .text.fdt_getprop_u32_default_node
                0x000000000001a778       0x40 common/built-in.o
                0x000000000001a778                fdt_getprop_u32_default_node
 .text.fdt_find_and_setprop
                0x000000000001a7b8       0x70 common/built-in.o
                0x000000000001a7b8                fdt_find_and_setprop
 .text.fdt_find_or_add_subnode
                0x000000000001a828       0x60 common/built-in.o
                0x000000000001a828                fdt_find_or_add_subnode
 .text.fdt_root
                0x000000000001a888       0x90 common/built-in.o
                0x000000000001a888                fdt_root
 .text.fdt_initrd
                0x000000000001a918      0x1a4 common/built-in.o
                0x000000000001a918                fdt_initrd
 .text.fdt_chosen
                0x000000000001aabc       0xa8 common/built-in.o
                0x000000000001aabc                fdt_chosen
 .text.do_fixup_by_path
                0x000000000001ab64       0x54 common/built-in.o
                0x000000000001ab64                do_fixup_by_path
 .text.fdt_fixup_memory_banks
                0x000000000001abb8      0x168 common/built-in.o
                0x000000000001abb8                fdt_fixup_memory_banks
 .text.fdt_fixup_memory
                0x000000000001ad20       0x20 common/built-in.o
                0x000000000001ad20                fdt_fixup_memory
 .text.fdt_fixup_ethernet
                0x000000000001ad40      0x1ac common/built-in.o
                0x000000000001ad40                fdt_fixup_ethernet
 .text.fdt_shrink_to_minimum
                0x000000000001aeec       0xec common/built-in.o
                0x000000000001aeec                fdt_shrink_to_minimum
 .text.fdt_translate_address
                0x000000000001afd8        0xc common/built-in.o
                0x000000000001afd8                fdt_translate_address
 .text.fdt_read_range
                0x000000000001afe4      0x13c common/built-in.o
                0x000000000001afe4                fdt_read_range
 .text.fdt_setup_simplefb_node
                0x000000000001b120      0x210 common/built-in.o
                0x000000000001b120                fdt_setup_simplefb_node
 .text.fdt_overlay_apply_verbose
                0x000000000001b330       0x6c common/built-in.o
                0x000000000001b330                fdt_overlay_apply_verbose
 .text.miiphy_get_dev_by_name
                0x000000000001b39c       0x58 common/built-in.o
                0x000000000001b39c                miiphy_get_dev_by_name
 .text.miiphy_init
                0x000000000001b3f4       0x24 common/built-in.o
                0x000000000001b3f4                miiphy_init
 .text.mdio_alloc
                0x000000000001b418       0x30 common/built-in.o
                0x000000000001b418                mdio_alloc
 .text.mdio_free
                0x000000000001b448        0x4 common/built-in.o
                0x000000000001b448                mdio_free
 .text.mdio_register
                0x000000000001b44c       0x88 common/built-in.o
                0x000000000001b44c                mdio_register
 .text.mdio_unregister
                0x000000000001b4d4       0x3c common/built-in.o
                0x000000000001b4d4                mdio_unregister
 .text.mdio_list_devices
                0x000000000001b510       0xb0 common/built-in.o
                0x000000000001b510                mdio_list_devices
 .text.miiphy_set_current_dev
                0x000000000001b5c0       0x40 common/built-in.o
                0x000000000001b5c0                miiphy_set_current_dev
 .text.miiphy_get_active_dev
                0x000000000001b600       0x54 common/built-in.o
 .text.mdio_get_current_dev
                0x000000000001b654       0x10 common/built-in.o
                0x000000000001b654                mdio_get_current_dev
 .text.mdio_phydev_for_ethname
                0x000000000001b664       0x8c common/built-in.o
                0x000000000001b664                mdio_phydev_for_ethname
 .text.miiphy_get_current_dev
                0x000000000001b6f0       0x18 common/built-in.o
                0x000000000001b6f0                miiphy_get_current_dev
 .text.miiphy_read
                0x000000000001b708       0x4c common/built-in.o
                0x000000000001b708                miiphy_read
 .text.miiphy_write
                0x000000000001b754       0x40 common/built-in.o
                0x000000000001b754                miiphy_write
 .text.miiphy_listdev
                0x000000000001b794       0x78 common/built-in.o
                0x000000000001b794                miiphy_listdev
 .text.miiphy_info
                0x000000000001b80c       0x88 common/built-in.o
                0x000000000001b80c                miiphy_info
 .text.miiphy_speed
                0x000000000001b894       0xc4 common/built-in.o
                0x000000000001b894                miiphy_speed
 .text.miiphy_duplex
                0x000000000001b958       0xbc common/built-in.o
                0x000000000001b958                miiphy_duplex
 .text.miiphy_is_1000base_x
                0x000000000001ba14        0x8 common/built-in.o
                0x000000000001ba14                miiphy_is_1000base_x
 .text.usb_set_maxpacket_ep
                0x000000000001ba1c       0x74 common/built-in.o
 .text.usb_int_msg
                0x000000000001ba90        0xc common/built-in.o
                0x000000000001ba90                usb_int_msg
 .text.usb_control_msg
                0x000000000001ba9c       0x9c common/built-in.o
                0x000000000001ba9c                usb_control_msg
 .text.usb_get_descriptor
                0x000000000001bb38       0x54 common/built-in.o
 .text.get_descriptor_len
                0x000000000001bb8c       0x90 common/built-in.o
 .text.usb_setup_descriptor
                0x000000000001bc1c       0xd8 common/built-in.o
 .text.usb_get_string
                0x000000000001bcf4       0x78 common/built-in.o
 .text.usb_string_sub
                0x000000000001bd6c      0x100 common/built-in.o
 .text.usb_bulk_msg
                0x000000000001be6c       0x74 common/built-in.o
                0x000000000001be6c                usb_bulk_msg
 .text.usb_maxpacket
                0x000000000001bee0       0x18 common/built-in.o
                0x000000000001bee0                usb_maxpacket
 .text.usb_clear_halt
                0x000000000001bef8       0x8c common/built-in.o
                0x000000000001bef8                usb_clear_halt
 .text.usb_get_configuration_len
                0x000000000001bf84       0x74 common/built-in.o
                0x000000000001bf84                usb_get_configuration_len
 .text.usb_get_configuration_no
                0x000000000001bff8       0x30 common/built-in.o
                0x000000000001bff8                usb_get_configuration_no
 .text.usb_set_interface
                0x000000000001c028       0xb4 common/built-in.o
                0x000000000001c028                usb_set_interface
 .text.usb_set_protocol
                0x000000000001c0dc       0x4c common/built-in.o
                0x000000000001c0dc                usb_set_protocol
 .text.usb_set_idle
                0x000000000001c128       0x50 common/built-in.o
                0x000000000001c128                usb_set_idle
 .text.usb_string
                0x000000000001c178      0x100 common/built-in.o
                0x000000000001c178                usb_string
 .text.usb_select_config
                0x000000000001c278      0x478 common/built-in.o
                0x000000000001c278                usb_select_config
 .text.usb_setup_device
                0x000000000001c6f0       0xf8 common/built-in.o
                0x000000000001c6f0                usb_setup_device
 .text.usb_device_has_child_on_port
                0x000000000001c7e8        0x8 common/built-in.o
                0x000000000001c7e8                usb_device_has_child_on_port
 .text.usb_find_usb2_hub_address_port
                0x000000000001c7f0       0x78 common/built-in.o
                0x000000000001c7f0                usb_find_usb2_hub_address_port
 .text.usb_set_port_feature
                0x000000000001c868       0x4c common/built-in.o
 .text.usb_clear_port_feature
                0x000000000001c8b4       0x4c common/built-in.o
 .text.usb_get_hub_descriptor
                0x000000000001c900       0x5c common/built-in.o
 .text.usb_hub_reset_devices
                0x000000000001c95c        0x4 common/built-in.o
                0x000000000001c95c                usb_hub_reset_devices
 .text.usb_hub_is_root_hub
                0x000000000001c960       0x18 common/built-in.o
                0x000000000001c960                usb_hub_is_root_hub
 .text.usb_get_port_status
                0x000000000001c978       0xac common/built-in.o
                0x000000000001c978                usb_get_port_status
 .text.usb_hub_port_connect_change
                0x000000000001ca24      0x164 common/built-in.o
                0x000000000001ca24                usb_hub_port_connect_change
 .text.usb_hub_configure
                0x000000000001cb88      0x5c8 common/built-in.o
 .text.usb_hub_scan
                0x000000000001d150       0x10 common/built-in.o
                0x000000000001d150                usb_hub_scan
 .text.usb_hub_post_probe
                0x000000000001d160        0x4 common/built-in.o
 .text.usb_stor_irq
                0x000000000001d164       0x1c common/built-in.o
 .text.usb_stor_BBB_reset
                0x000000000001d180       0xdc common/built-in.o
 .text.usb_stor_CB_reset
                0x000000000001d25c       0xd4 common/built-in.o
 .text.usb_stor_BBB_clear_endpt_stall.isra.0
                0x000000000001d330       0x40 common/built-in.o
 .text.usb_stor_BBB_transport
                0x000000000001d370      0x268 common/built-in.o
 .text.usb_stor_CB_comdat
                0x000000000001d5d8      0x210 common/built-in.o
 .text.usb_stor_CBI_get_status.isra.0
                0x000000000001d7e8       0xd4 common/built-in.o
 .text.usb_stor_CB_transport
                0x000000000001d8bc      0x220 common/built-in.o
 .text.usb_request_sense.constprop.0
                0x000000000001dadc       0x70 common/built-in.o
 .text.usb_stor_read
                0x000000000001db4c      0x170 common/built-in.o
 .text.usb_stor_write
                0x000000000001dcbc      0x170 common/built-in.o
 .text.usb_stor_info
                0x000000000001de2c       0x74 common/built-in.o
                0x000000000001de2c                usb_stor_info
 .text.usb_stor_reset
                0x000000000001dea0       0x14 common/built-in.o
                0x000000000001dea0                usb_stor_reset
 .text.usb_stor_scan
                0x000000000001deb4       0x48 common/built-in.o
                0x000000000001deb4                usb_stor_scan
 .text.usb_storage_probe
                0x000000000001defc      0x238 common/built-in.o
                0x000000000001defc                usb_storage_probe
 .text.usb_stor_get_info
                0x000000000001e134      0x30c common/built-in.o
                0x000000000001e134                usb_stor_get_info
 .text.usb_mass_storage_probe
                0x000000000001e440      0x16c common/built-in.o
 .text.iomux_doenv
                0x000000000001e5ac      0x1b4 common/built-in.o
                0x000000000001e5ac                iomux_doenv
 .text.lcd_dt_simplefb_configure_node
                0x000000000001e760       0xa8 common/built-in.o
 .text.lcd_dt_simplefb_add_node
                0x000000000001e808       0x98 common/built-in.o
                0x000000000001e808                lcd_dt_simplefb_add_node
 .text.menu_display_statusline
                0x000000000001e8a0        0x4 common/built-in.o
                0x000000000001e8a0                menu_display_statusline
 .text.menu_default_set
                0x000000000001e8a4       0x78 common/built-in.o
                0x000000000001e8a4                menu_default_set
 .text.menu_get_choice
                0x000000000001e91c      0x1e8 common/built-in.o
                0x000000000001e91c                menu_get_choice
 .text.menu_item_add
                0x000000000001eb04       0xd4 common/built-in.o
                0x000000000001eb04                menu_item_add
 .text.menu_create
                0x000000000001ebd8       0x94 common/built-in.o
                0x000000000001ebd8                menu_create
 .text.menu_destroy
                0x000000000001ec6c       0x6c common/built-in.o
                0x000000000001ec6c                menu_destroy
 .text.usb_kbd_put_queue
                0x000000000001ecd8       0x44 common/built-in.o
 .text.usb_kbd_remove
                0x000000000001ed1c       0x94 common/built-in.o
 .text.usb_kbd_translate.part.0
                0x000000000001edb0      0x1e8 common/built-in.o
 .text.usb_kbd_probe
                0x000000000001ef98      0x1dc common/built-in.o
 .text.usb_kbd_irq_worker
                0x000000000001f174      0x1a8 common/built-in.o
 .text.usb_kbd_getc
                0x000000000001f31c       0x80 common/built-in.o
 .text.usb_kbd_testc
                0x000000000001f39c       0xa4 common/built-in.o
 .text.usb_kbd_irq
                0x000000000001f440       0x24 common/built-in.o
 .text.delete_char.part.0
                0x000000000001f464       0xd0 common/built-in.o
 .text.cread_add_char
                0x000000000001f534       0xe4 common/built-in.o
 .text.cli_readline_into_buffer
                0x000000000001f618      0xa18 common/built-in.o
                0x000000000001f618                cli_readline_into_buffer
 .text.cli_readline
                0x0000000000020030       0x14 common/built-in.o
                0x0000000000020030                cli_readline
 .text.cli_simple_process_macros
                0x0000000000020044      0x1e0 common/built-in.o
                0x0000000000020044                cli_simple_process_macros
 .text.console_tstc
                0x0000000000020224       0x8c common/built-in.o
 .text.console_putc
                0x00000000000202b0       0x50 common/built-in.o
 .text.console_puts
                0x0000000000020300       0x50 common/built-in.o
 .text.on_console
                0x0000000000020350       0xb8 common/built-in.o
 .text.serial_printf
                0x0000000000020408       0x48 common/built-in.o
                0x0000000000020408                serial_printf
 .text.puts     0x0000000000020450       0x30 common/built-in.o
                0x0000000000020450                puts
 .text.putc     0x0000000000020480       0x30 common/built-in.o
                0x0000000000020480                putc
 .text.console_getc.isra.0
                0x00000000000204b0       0x28 common/built-in.o
 .text.tstc     0x00000000000204d8       0x24 common/built-in.o
                0x00000000000204d8                tstc
 .text.getc     0x00000000000204fc       0x44 common/built-in.o
                0x00000000000204fc                getc
 .text.fputs    0x0000000000020540        0xc common/built-in.o
                0x0000000000020540                fputs
 .text.ctrlc    0x000000000002054c       0x60 common/built-in.o
                0x000000000002054c                ctrlc
 .text.disable_ctrlc
                0x00000000000205ac       0x18 common/built-in.o
                0x00000000000205ac                disable_ctrlc
 .text.had_ctrlc
                0x00000000000205c4       0x10 common/built-in.o
                0x00000000000205c4                had_ctrlc
 .text.clear_ctrlc
                0x00000000000205d4       0x14 common/built-in.o
                0x00000000000205d4                clear_ctrlc
 .text.search_device
                0x00000000000205e8       0x28 common/built-in.o
                0x00000000000205e8                search_device
 .text.console_assign
                0x0000000000020610       0xd0 common/built-in.o
                0x0000000000020610                console_assign
 .text.console_init_f
                0x00000000000206e0       0x10 common/built-in.o
                0x00000000000206e0                console_init_f
 .text.stdio_print_current_devices
                0x00000000000206f0       0xb0 common/built-in.o
                0x00000000000206f0                stdio_print_current_devices
 .text.console_init_r
                0x00000000000207a0      0x194 common/built-in.o
                0x00000000000207a0                console_init_r
 .text.sbrk     0x0000000000020934       0x6c common/built-in.o
                0x0000000000020934                sbrk
 .text.mem_malloc_init
                0x00000000000209a0       0x34 common/built-in.o
                0x00000000000209a0                mem_malloc_init
 .text.malloc_trim
                0x00000000000209d4       0xd0 common/built-in.o
                0x00000000000209d4                malloc_trim
 .text.free     0x0000000000020aa4      0x240 common/built-in.o
                0x0000000000020aa4                free
 .text.malloc   0x0000000000020ce4      0x618 common/built-in.o
                0x0000000000020ce4                malloc
 .text.calloc   0x00000000000212fc       0xe8 common/built-in.o
                0x00000000000212fc                calloc
 .text.realloc  0x00000000000213e4      0x428 common/built-in.o
                0x00000000000213e4                realloc
 .text.memalign
                0x000000000002180c      0x188 common/built-in.o
                0x000000000002180c                memalign
 .text.initf_malloc
                0x0000000000021994       0x18 common/built-in.o
                0x0000000000021994                initf_malloc
 .text.alloc_simple
                0x00000000000219ac       0x60 common/built-in.o
 .text.malloc_simple
                0x0000000000021a0c        0x8 common/built-in.o
                0x0000000000021a0c                malloc_simple
 .text.memalign_simple
                0x0000000000021a14       0x10 common/built-in.o
                0x0000000000021a14                memalign_simple
 .text.on_loadaddr
                0x0000000000021a24       0x34 common/built-in.o
 .text.image_check_hcrc
                0x0000000000021a58       0x4c common/built-in.o
                0x0000000000021a58                image_check_hcrc
 .text.image_check_dcrc
                0x0000000000021aa4       0x38 common/built-in.o
                0x0000000000021aa4                image_check_dcrc
 .text.image_multi_count
                0x0000000000021adc       0x1c common/built-in.o
                0x0000000000021adc                image_multi_count
 .text.image_multi_getimg
                0x0000000000021af8       0x78 common/built-in.o
                0x0000000000021af8                image_multi_getimg
 .text.env_get_bootm_low
                0x0000000000021b70       0x28 common/built-in.o
                0x0000000000021b70                env_get_bootm_low
 .text.env_get_bootm_size
                0x0000000000021b98       0x68 common/built-in.o
                0x0000000000021b98                env_get_bootm_size
 .text.env_get_bootm_mapsize
                0x0000000000021c00       0x30 common/built-in.o
                0x0000000000021c00                env_get_bootm_mapsize
 .text.memmove_wd
                0x0000000000021c30        0xc common/built-in.o
                0x0000000000021c30                memmove_wd
 .text.genimg_print_size
                0x0000000000021c3c       0x30 common/built-in.o
                0x0000000000021c3c                genimg_print_size
 .text.get_table_entry
                0x0000000000021c6c       0x24 common/built-in.o
                0x0000000000021c6c                get_table_entry
 .text.get_table_entry_name
                0x0000000000021c90       0x20 common/built-in.o
                0x0000000000021c90                get_table_entry_name
 .text.genimg_get_os_name
                0x0000000000021cb0       0x18 common/built-in.o
                0x0000000000021cb0                genimg_get_os_name
 .text.genimg_get_arch_name
                0x0000000000021cc8       0x18 common/built-in.o
                0x0000000000021cc8                genimg_get_arch_name
 .text.genimg_get_type_name
                0x0000000000021ce0       0x18 common/built-in.o
                0x0000000000021ce0                genimg_get_type_name
 .text.image_decomp
                0x0000000000021cf8       0xe8 common/built-in.o
                0x0000000000021cf8                image_decomp
 .text.genimg_get_comp_name
                0x0000000000021de0       0x18 common/built-in.o
                0x0000000000021de0                genimg_get_comp_name
 .text.image_print_contents
                0x0000000000021df8      0x1ac common/built-in.o
                0x0000000000021df8                image_print_contents
 .text.genimg_get_kernel_addr_fit
                0x0000000000021fa4       0x24 common/built-in.o
                0x0000000000021fa4                genimg_get_kernel_addr_fit
 .text.genimg_get_kernel_addr
                0x0000000000021fc8       0x24 common/built-in.o
                0x0000000000021fc8                genimg_get_kernel_addr
 .text.genimg_get_format
                0x0000000000021fec       0x34 common/built-in.o
                0x0000000000021fec                genimg_get_format
 .text.genimg_has_config
                0x0000000000022020        0x8 common/built-in.o
                0x0000000000022020                genimg_has_config
 .text.boot_get_ramdisk
                0x0000000000022028      0x27c common/built-in.o
                0x0000000000022028                boot_get_ramdisk
 .text.boot_ramdisk_high
                0x00000000000222a4      0x124 common/built-in.o
                0x00000000000222a4                boot_ramdisk_high
 .text.boot_get_setup
                0x00000000000223c8        0x8 common/built-in.o
                0x00000000000223c8                boot_get_setup
 .text.image_setup_linux
                0x00000000000223d0       0x60 common/built-in.o
                0x00000000000223d0                image_setup_linux
 .text.fdt_error
                0x0000000000022430       0x2c common/built-in.o
 .text.boot_fdt_add_mem_rsv_regions
                0x000000000002245c      0x19c common/built-in.o
                0x000000000002245c                boot_fdt_add_mem_rsv_regions
 .text.boot_relocate_fdt
                0x00000000000225f8      0x194 common/built-in.o
                0x00000000000225f8                boot_relocate_fdt
 .text.boot_get_fdt
                0x000000000002278c      0x27c common/built-in.o
                0x000000000002278c                boot_get_fdt
 .text.ft_verify_fdt
                0x0000000000022a08        0x8 common/built-in.o
                0x0000000000022a08                ft_verify_fdt
 .text.image_setup_libfdt
                0x0000000000022a10      0x144 common/built-in.o
                0x0000000000022a10                image_setup_libfdt
 .text.get_effective_memsize
                0x0000000000022b54        0x8 common/built-in.o
                0x0000000000022b54                get_effective_memsize
 .text.nulldev_putc
                0x0000000000022b5c        0x4 common/built-in.o
 .text.nulldev_puts
                0x0000000000022b60        0x4 common/built-in.o
 .text.nulldev_input
                0x0000000000022b64        0x8 common/built-in.o
 .text.stdio_serial_tstc
                0x0000000000022b6c        0x4 common/built-in.o
 .text.stdio_serial_getc
                0x0000000000022b70        0x4 common/built-in.o
 .text.stdio_serial_puts
                0x0000000000022b74        0x8 common/built-in.o
 .text.stdio_serial_putc
                0x0000000000022b7c        0x8 common/built-in.o
 .text.stdio_get_list
                0x0000000000022b84        0xc common/built-in.o
                0x0000000000022b84                stdio_get_list
 .text.stdio_get_by_name
                0x0000000000022b90       0xf4 common/built-in.o
                0x0000000000022b90                stdio_get_by_name
 .text.stdio_clone
                0x0000000000022c84       0x38 common/built-in.o
                0x0000000000022c84                stdio_clone
 .text.stdio_register_dev
                0x0000000000022cbc       0x50 common/built-in.o
                0x0000000000022cbc                stdio_register_dev
 .text.stdio_register
                0x0000000000022d0c        0x8 common/built-in.o
                0x0000000000022d0c                stdio_register
 .text.stdio_deregister_dev
                0x0000000000022d14      0x100 common/built-in.o
                0x0000000000022d14                stdio_deregister_dev
 .text.stdio_init_tables
                0x0000000000022e14       0x1c common/built-in.o
                0x0000000000022e14                stdio_init_tables
 .text.stdio_add_devices
                0x0000000000022e30      0x130 common/built-in.o
                0x0000000000022e30                stdio_add_devices
 .text.run_command
                0x0000000000022f60       0x10 common/built-in.o
                0x0000000000022f60                run_command
 .text.run_command_list
                0x0000000000022f70       0x7c common/built-in.o
                0x0000000000022f70                run_command_list
 .text.do_run   0x0000000000022fec       0x74 common/built-in.o
                0x0000000000022fec                do_run
 .text.cli_process_fdt
                0x0000000000023060       0x40 common/built-in.o
                0x0000000000023060                cli_process_fdt
 .text.cli_secure_boot_cmd
                0x00000000000230a0       0x78 common/built-in.o
                0x00000000000230a0                cli_secure_boot_cmd
 .text.cli_loop
                0x0000000000023118       0x14 common/built-in.o
                0x0000000000023118                cli_loop
 .text.cli_init
                0x000000000002312c        0x4 common/built-in.o
                0x000000000002312c                cli_init
 .text.find_cmd_tbl
                0x0000000000023130       0xa4 common/built-in.o
                0x0000000000023130                find_cmd_tbl
 .text.find_cmd
                0x00000000000231d4       0x28 common/built-in.o
                0x00000000000231d4                find_cmd
 .text.cmd_usage
                0x00000000000231fc       0x5c common/built-in.o
                0x00000000000231fc                cmd_usage
 .text._do_help
                0x0000000000023258      0x188 common/built-in.o
                0x0000000000023258                _do_help
 .text.var_complete
                0x00000000000233e0       0x98 common/built-in.o
                0x00000000000233e0                var_complete
 .text.complete_subcmdv
                0x0000000000023478      0x1b4 common/built-in.o
                0x0000000000023478                complete_subcmdv
 .text.cmd_auto_complete
                0x000000000002362c      0x404 common/built-in.o
                0x000000000002362c                cmd_auto_complete
 .text.cmd_get_data_size
                0x0000000000023a30       0x50 common/built-in.o
                0x0000000000023a30                cmd_get_data_size
 .text.cmd_always_repeatable
                0x0000000000023a80       0x20 common/built-in.o
                0x0000000000023a80                cmd_always_repeatable
 .text.cmd_never_repeatable
                0x0000000000023aa0       0x20 common/built-in.o
                0x0000000000023aa0                cmd_never_repeatable
 .text.cmd_process
                0x0000000000023ac0      0x154 common/built-in.o
                0x0000000000023ac0                cmd_process
 .text.cmd_process_error
                0x0000000000023c14       0x3c common/built-in.o
                0x0000000000023c14                cmd_process_error
 .text.hex1_bin
                0x0000000000023c50       0x3c common/built-in.o
 .text.hex2_bin
                0x0000000000023c8c       0x38 common/built-in.o
 .text.srec_decode
                0x0000000000023cc4      0x248 common/built-in.o
                0x0000000000023cc4                srec_decode
 .text.CYGACC_COMM_IF_GETC_TIMEOUT.isra.0
                0x0000000000023f0c       0x4c common/built-in.o
 .text.xyzModem_flush
                0x0000000000023f58       0x1c common/built-in.o
 .text.xyzModem_get_hdr
                0x0000000000023f74      0x214 common/built-in.o
 .text.xyzModem_stream_open
                0x0000000000024188      0x208 common/built-in.o
                0x0000000000024188                xyzModem_stream_open
 .text.xyzModem_stream_read
                0x0000000000024390      0x24c common/built-in.o
                0x0000000000024390                xyzModem_stream_read
 .text.xyzModem_stream_close
                0x00000000000245dc       0x54 common/built-in.o
                0x00000000000245dc                xyzModem_stream_close
 .text.xyzModem_stream_terminate
                0x0000000000024630       0x94 common/built-in.o
                0x0000000000024630                xyzModem_stream_terminate
 .text.xyzModem_error
                0x00000000000246c4       0x1c common/built-in.o
                0x00000000000246c4                xyzModem_error
 .text.part_driver_lookup_type
                0x00000000000246e0       0x88 disk/built-in.o
 .text.dev_print
                0x0000000000024768      0x238 disk/built-in.o
                0x0000000000024768                dev_print
 .text.part_init
                0x00000000000249a0       0x60 disk/built-in.o
                0x00000000000249a0                part_init
 .text.part_print
                0x0000000000024a00      0x12c disk/built-in.o
                0x0000000000024a00                part_print
 .text.part_get_info
                0x0000000000024b2c       0x60 disk/built-in.o
                0x0000000000024b2c                part_get_info
 .text.part_get_info_whole_disk
                0x0000000000024b8c       0x50 disk/built-in.o
                0x0000000000024b8c                part_get_info_whole_disk
 .text.blk_get_device_by_str
                0x0000000000024bdc      0x12c disk/built-in.o
                0x0000000000024bdc                blk_get_device_by_str
 .text.blk_get_device_part_str
                0x0000000000024d08      0x3d0 disk/built-in.o
                0x0000000000024d08                blk_get_device_part_str
 .text.part_get_info_by_name_type
                0x00000000000250d8       0x74 disk/built-in.o
                0x00000000000250d8                part_get_info_by_name_type
 .text.part_get_info_by_name
                0x000000000002514c        0x8 disk/built-in.o
                0x000000000002514c                part_get_info_by_name
 .text.part_set_generic_name
                0x0000000000025154       0x4c disk/built-in.o
                0x0000000000025154                part_set_generic_name
 .text.test_block_type
                0x00000000000251a0       0xc4 disk/built-in.o
 .text.part_test_dos
                0x0000000000025264       0x88 disk/built-in.o
 .text.part_get_info_extended
                0x00000000000252ec      0x2cc disk/built-in.o
 .text.part_get_info_dos
                0x00000000000255b8       0x28 disk/built-in.o
                0x00000000000255b8                part_get_info_dos
 .text.print_partition_extended
                0x00000000000255e0      0x280 disk/built-in.o
 .text.part_print_dos
                0x0000000000025860       0x34 disk/built-in.o
                0x0000000000025860                part_print_dos
 .text.iso_dread
                0x0000000000025894       0x30 disk/built-in.o
                0x0000000000025894                iso_dread
 .text.part_get_info_iso_verb
                0x00000000000258c4      0x384 disk/built-in.o
                0x00000000000258c4                part_get_info_iso_verb
 .text.part_test_iso
                0x0000000000025c48       0x20 disk/built-in.o
 .text.part_print_iso
                0x0000000000025c68       0x98 disk/built-in.o
 .text.part_get_info_iso
                0x0000000000025d00        0x8 disk/built-in.o
 .text.print_efiname
                0x0000000000025d08       0x58 disk/built-in.o
 .text.part_test_efi
                0x0000000000025d60       0xd0 disk/built-in.o
 .text.validate_gpt_entries
                0x0000000000025e30       0x98 disk/built-in.o
 .text.validate_gpt_header
                0x0000000000025ec8      0x228 disk/built-in.o
 .text.is_gpt_valid
                0x00000000000260f0      0x2e0 disk/built-in.o
 .text.is_pte_valid
                0x00000000000263d0       0x58 disk/built-in.o
 .text.find_valid_gpt
                0x0000000000026428       0xb0 disk/built-in.o
 .text.part_print_efi
                0x00000000000264d8      0x21c disk/built-in.o
                0x00000000000264d8                part_print_efi
 .text.part_get_info_efi
                0x00000000000266f4      0x1a8 disk/built-in.o
                0x00000000000266f4                part_get_info_efi
 .text.device_bind_common.isra.0
                0x000000000002689c      0x350 drivers/built-in.o
 .text.alloc_priv
                0x0000000000026bec       0x54 drivers/built-in.o
 .text.device_bind_with_driver_data
                0x0000000000026c40       0x24 drivers/built-in.o
                0x0000000000026c40                device_bind_with_driver_data
 .text.device_bind
                0x0000000000026c64       0x28 drivers/built-in.o
                0x0000000000026c64                device_bind
 .text.device_bind_by_name
                0x0000000000026c8c       0x6c drivers/built-in.o
                0x0000000000026c8c                device_bind_by_name
 .text.device_ofdata_to_platdata
                0x0000000000026cf8      0x158 drivers/built-in.o
                0x0000000000026cf8                device_ofdata_to_platdata
 .text.device_probe
                0x0000000000026e50      0x1a0 drivers/built-in.o
                0x0000000000026e50                device_probe
 .text.dev_get_platdata
                0x0000000000026ff0       0x2c drivers/built-in.o
                0x0000000000026ff0                dev_get_platdata
 .text.dev_get_parent_platdata
                0x000000000002701c       0x2c drivers/built-in.o
                0x000000000002701c                dev_get_parent_platdata
 .text.dev_get_uclass_platdata
                0x0000000000027048       0x2c drivers/built-in.o
                0x0000000000027048                dev_get_uclass_platdata
 .text.dev_get_priv
                0x0000000000027074       0x2c drivers/built-in.o
                0x0000000000027074                dev_get_priv
 .text.dev_get_uclass_priv
                0x00000000000270a0       0x2c drivers/built-in.o
                0x00000000000270a0                dev_get_uclass_priv
 .text.dev_get_parent_priv
                0x00000000000270cc       0x2c drivers/built-in.o
                0x00000000000270cc                dev_get_parent_priv
 .text.device_find_first_child
                0x00000000000270f8       0x1c drivers/built-in.o
                0x00000000000270f8                device_find_first_child
 .text.device_find_next_child
                0x0000000000027114       0x28 drivers/built-in.o
                0x0000000000027114                device_find_next_child
 .text.dev_get_parent
                0x000000000002713c        0x8 drivers/built-in.o
                0x000000000002713c                dev_get_parent
 .text.dev_get_driver_data
                0x0000000000027144        0x8 drivers/built-in.o
                0x0000000000027144                dev_get_driver_data
 .text.device_get_uclass_id
                0x000000000002714c       0x10 drivers/built-in.o
                0x000000000002714c                device_get_uclass_id
 .text.device_has_active_children
                0x000000000002715c       0x40 drivers/built-in.o
                0x000000000002715c                device_has_active_children
 .text.device_is_last_sibling
                0x000000000002719c       0x28 drivers/built-in.o
                0x000000000002719c                device_is_last_sibling
 .text.device_set_name_alloced
                0x00000000000271c4       0x10 drivers/built-in.o
                0x00000000000271c4                device_set_name_alloced
 .text.devfdt_get_addr_index
                0x00000000000271d4       0xbc drivers/built-in.o
                0x00000000000271d4                devfdt_get_addr_index
 .text.devfdt_get_addr
                0x0000000000027290        0x8 drivers/built-in.o
                0x0000000000027290                devfdt_get_addr
 .text.devfdt_get_addr_ptr
                0x0000000000027298        0x8 drivers/built-in.o
                0x0000000000027298                devfdt_get_addr_ptr
 .text.lists_driver_lookup_name
                0x00000000000272a0       0x48 drivers/built-in.o
                0x00000000000272a0                lists_driver_lookup_name
 .text.lists_uclass_lookup
                0x00000000000272e8       0x38 drivers/built-in.o
                0x00000000000272e8                lists_uclass_lookup
 .text.lists_bind_drivers
                0x0000000000027320       0x8c drivers/built-in.o
                0x0000000000027320                lists_bind_drivers
 .text.device_bind_driver_to_node
                0x00000000000273ac       0x48 drivers/built-in.o
                0x00000000000273ac                device_bind_driver_to_node
 .text.device_bind_driver
                0x00000000000273f4       0x18 drivers/built-in.o
                0x00000000000273f4                device_bind_driver
 .text.lists_bind_fdt
                0x000000000002740c      0x194 drivers/built-in.o
                0x000000000002740c                lists_bind_fdt
 .text.dm_scan_fdt_node
                0x00000000000275a0       0xac drivers/built-in.o
 .text.dm_root  0x000000000002764c       0x2c drivers/built-in.o
                0x000000000002764c                dm_root
 .text.dm_init  0x0000000000027678       0x60 drivers/built-in.o
                0x0000000000027678                dm_init
 .text.dm_remove_devices_flags
                0x00000000000276d8       0x1c drivers/built-in.o
                0x00000000000276d8                dm_remove_devices_flags
 .text.dm_scan_platdata
                0x00000000000276f4       0x2c drivers/built-in.o
                0x00000000000276f4                dm_scan_platdata
 .text.dm_scan_fdt_dev
                0x0000000000027720       0x28 drivers/built-in.o
                0x0000000000027720                dm_scan_fdt_dev
 .text.dm_scan_fdt
                0x0000000000027748       0x18 drivers/built-in.o
                0x0000000000027748                dm_scan_fdt
 .text.dm_extended_scan_fdt
                0x0000000000027760       0x84 drivers/built-in.o
                0x0000000000027760                dm_extended_scan_fdt
 .text.dm_scan_other
                0x00000000000277e4        0x8 drivers/built-in.o
                0x00000000000277e4                dm_scan_other
 .text.dm_init_and_scan
                0x00000000000277ec       0x48 drivers/built-in.o
                0x00000000000277ec                dm_init_and_scan
 .text.uclass_find
                0x0000000000027834       0x4c drivers/built-in.o
                0x0000000000027834                uclass_find
 .text.uclass_get
                0x0000000000027880      0x11c drivers/built-in.o
                0x0000000000027880                uclass_get
 .text.dev_get_uclass_index
                0x000000000002799c       0x58 drivers/built-in.o
                0x000000000002799c                dev_get_uclass_index
 .text.uclass_find_device
                0x00000000000279f4       0x74 drivers/built-in.o
                0x00000000000279f4                uclass_find_device
 .text.uclass_find_first_device
                0x0000000000027a68       0x3c drivers/built-in.o
                0x0000000000027a68                uclass_find_first_device
 .text.uclass_find_next_device
                0x0000000000027aa4       0x2c drivers/built-in.o
                0x0000000000027aa4                uclass_find_next_device
 .text.uclass_find_device_by_name
                0x0000000000027ad0       0x78 drivers/built-in.o
                0x0000000000027ad0                uclass_find_device_by_name
 .text.uclass_find_device_by_seq
                0x0000000000027b48       0x7c drivers/built-in.o
                0x0000000000027b48                uclass_find_device_by_seq
 .text.uclass_find_device_by_of_offset
                0x0000000000027bc4       0x68 drivers/built-in.o
                0x0000000000027bc4                uclass_find_device_by_of_offset
 .text.uclass_find_device_by_ofnode
                0x0000000000027c2c       0x6c drivers/built-in.o
                0x0000000000027c2c                uclass_find_device_by_ofnode
 .text.uclass_find_device_by_phandle
                0x0000000000027c98       0x98 drivers/built-in.o
                0x0000000000027c98                uclass_find_device_by_phandle
 .text.uclass_get_device_tail
                0x0000000000027d30       0x30 drivers/built-in.o
                0x0000000000027d30                uclass_get_device_tail
 .text.uclass_get_device
                0x0000000000027d60       0x30 drivers/built-in.o
                0x0000000000027d60                uclass_get_device
 .text.uclass_get_device_by_name
                0x0000000000027d90       0x30 drivers/built-in.o
                0x0000000000027d90                uclass_get_device_by_name
 .text.uclass_get_device_by_seq
                0x0000000000027dc0       0x54 drivers/built-in.o
                0x0000000000027dc0                uclass_get_device_by_seq
 .text.uclass_get_device_by_of_offset
                0x0000000000027e14       0x30 drivers/built-in.o
                0x0000000000027e14                uclass_get_device_by_of_offset
 .text.uclass_get_device_by_ofnode
                0x0000000000027e44       0x30 drivers/built-in.o
                0x0000000000027e44                uclass_get_device_by_ofnode
 .text.uclass_get_device_by_phandle_id
                0x0000000000027e74       0x84 drivers/built-in.o
                0x0000000000027e74                uclass_get_device_by_phandle_id
 .text.uclass_get_device_by_phandle
                0x0000000000027ef8       0x30 drivers/built-in.o
                0x0000000000027ef8                uclass_get_device_by_phandle
 .text.uclass_first_device
                0x0000000000027f28       0x38 drivers/built-in.o
                0x0000000000027f28                uclass_first_device
 .text.uclass_first_device_err
                0x0000000000027f60       0x24 drivers/built-in.o
                0x0000000000027f60                uclass_first_device_err
 .text.uclass_next_device
                0x0000000000027f84       0x40 drivers/built-in.o
                0x0000000000027f84                uclass_next_device
 .text.uclass_next_device_err
                0x0000000000027fc4       0x24 drivers/built-in.o
                0x0000000000027fc4                uclass_next_device_err
 .text.uclass_first_device_check
                0x0000000000027fe8       0x34 drivers/built-in.o
                0x0000000000027fe8                uclass_first_device_check
 .text.uclass_next_device_check
                0x000000000002801c       0x2c drivers/built-in.o
                0x000000000002801c                uclass_next_device_check
 .text.uclass_bind_device
                0x0000000000028048       0x7c drivers/built-in.o
                0x0000000000028048                uclass_bind_device
 .text.uclass_unbind_device
                0x00000000000280c4       0x4c drivers/built-in.o
                0x00000000000280c4                uclass_unbind_device
 .text.uclass_resolve_seq
                0x0000000000028110       0xb4 drivers/built-in.o
                0x0000000000028110                uclass_resolve_seq
 .text.uclass_pre_probe_device
                0x00000000000281c4       0x60 drivers/built-in.o
                0x00000000000281c4                uclass_pre_probe_device
 .text.uclass_post_probe_device
                0x0000000000028224       0x60 drivers/built-in.o
                0x0000000000028224                uclass_post_probe_device
 .text.uclass_pre_remove_device
                0x0000000000028284       0x20 drivers/built-in.o
                0x0000000000028284                uclass_pre_remove_device
 .text.dm_warn  0x00000000000282a4       0x28 drivers/built-in.o
                0x00000000000282a4                dm_warn
 .text.device_unbind
                0x00000000000282cc      0x108 drivers/built-in.o
                0x00000000000282cc                device_unbind
 .text.device_chld_unbind
                0x00000000000283d4       0x90 drivers/built-in.o
                0x00000000000283d4                device_chld_unbind
 .text.device_free
                0x0000000000028464       0x9c drivers/built-in.o
                0x0000000000028464                device_free
 .text.device_remove
                0x0000000000028500      0x148 drivers/built-in.o
                0x0000000000028500                device_remove
 .text.device_chld_remove
                0x0000000000028648       0x68 drivers/built-in.o
                0x0000000000028648                device_chld_remove
 .text.simple_bus_post_bind
                0x00000000000286b0       0x58 drivers/built-in.o
 .text.show_devices
                0x0000000000028708      0x108 drivers/built-in.o
 .text.dm_dump_all
                0x0000000000028810       0x3c drivers/built-in.o
                0x0000000000028810                dm_dump_all
 .text.dm_dump_uclass
                0x000000000002884c       0xf8 drivers/built-in.o
                0x000000000002884c                dm_dump_uclass
 .text.dm_dump_drivers
                0x0000000000028944       0xc0 drivers/built-in.o
                0x0000000000028944                dm_dump_drivers
 .text.ofnode_read_u32_index
                0x0000000000028a04       0x60 drivers/built-in.o
                0x0000000000028a04                ofnode_read_u32_index
 .text.ofnode_read_u32_default
                0x0000000000028a64       0x20 drivers/built-in.o
                0x0000000000028a64                ofnode_read_u32_default
 .text.ofnode_read_u64
                0x0000000000028a84       0x5c drivers/built-in.o
                0x0000000000028a84                ofnode_read_u64
 .text.ofnode_read_u64_default
                0x0000000000028ae0       0x1c drivers/built-in.o
                0x0000000000028ae0                ofnode_read_u64_default
 .text.ofnode_read_u32_array
                0x0000000000028afc       0x28 drivers/built-in.o
                0x0000000000028afc                ofnode_read_u32_array
 .text.ofnode_first_subnode
                0x0000000000028b24       0x18 drivers/built-in.o
                0x0000000000028b24                ofnode_first_subnode
 .text.ofnode_next_subnode
                0x0000000000028b3c       0x18 drivers/built-in.o
                0x0000000000028b3c                ofnode_next_subnode
 .text.ofnode_get_name
                0x0000000000028b54       0x20 drivers/built-in.o
                0x0000000000028b54                ofnode_get_name
 .text.ofnode_stringlist_search
                0x0000000000028b74       0x38 drivers/built-in.o
                0x0000000000028b74                ofnode_stringlist_search
 .text.ofnode_parse_phandle_with_args
                0x0000000000028bac       0x6c drivers/built-in.o
                0x0000000000028bac                ofnode_parse_phandle_with_args
 .text.ofnode_path
                0x0000000000028c18       0x18 drivers/built-in.o
                0x0000000000028c18                ofnode_path
 .text.ofnode_get_property
                0x0000000000028c30       0x18 drivers/built-in.o
                0x0000000000028c30                ofnode_get_property
 .text.ofnode_read_bool
                0x0000000000028c48       0x18 drivers/built-in.o
                0x0000000000028c48                ofnode_read_bool
 .text.ofnode_read_u8_array_ptr
                0x0000000000028c60       0x18 drivers/built-in.o
                0x0000000000028c60                ofnode_read_u8_array_ptr
 .text.ofnode_pre_reloc
                0x0000000000028c78       0x68 drivers/built-in.o
                0x0000000000028c78                ofnode_pre_reloc
 .text.input_tstc
                0x0000000000028ce0       0x48 drivers/built-in.o
                0x0000000000028ce0                input_tstc
 .text.input_getc
                0x0000000000028d28       0x60 drivers/built-in.o
                0x0000000000028d28                input_getc
 .text.input_init
                0x0000000000028d88       0x24 drivers/built-in.o
                0x0000000000028d88                input_init
 .text.keyboard_start
                0x0000000000028dac       0x24 drivers/built-in.o
 .text.keyboard_stop
                0x0000000000028dd0       0x24 drivers/built-in.o
 .text.keyboard_pre_probe
                0x0000000000028df4       0x6c drivers/built-in.o
 .text.keyboard_tstc
                0x0000000000028e60       0x50 drivers/built-in.o
 .text.keyboard_getc
                0x0000000000028eb0       0x50 drivers/built-in.o
 .text.pinconfig_post_bind
                0x0000000000028f00       0xec drivers/built-in.o
 .text.pinctrl_post_bind
                0x0000000000028fec       0x30 drivers/built-in.o
 .text.pinctrl_select_state
                0x000000000002901c      0x184 drivers/built-in.o
                0x000000000002901c                pinctrl_select_state
 .text.pinctrl_get_gpio_mux
                0x00000000000291a0       0x20 drivers/built-in.o
                0x00000000000291a0                pinctrl_get_gpio_mux
 .text.pinctrl_get_pins_count
                0x00000000000291c0       0x20 drivers/built-in.o
                0x00000000000291c0                pinctrl_get_pins_count
 .text.pinctrl_get_pin_name
                0x00000000000291e0       0x44 drivers/built-in.o
                0x00000000000291e0                pinctrl_get_pin_name
 .text.pinctrl_get_pin_muxing
                0x0000000000029224       0x2c drivers/built-in.o
                0x0000000000029224                pinctrl_get_pin_muxing
 .text.bcm283x_pinctrl_set_state
                0x0000000000029250       0xf4 drivers/built-in.o
                0x0000000000029250                bcm283x_pinctrl_set_state
 .text.bcm283x_pinctrl_get_gpio_mux
                0x0000000000029344       0x50 drivers/built-in.o
 .text.bcm283x_pinctl_probe
                0x0000000000029394       0x84 drivers/built-in.o
                0x0000000000029394                bcm283x_pinctl_probe
 .text.get_desc
                0x0000000000029418       0xac drivers/built-in.o
 .text.blk_post_probe
                0x00000000000294c4       0x14 drivers/built-in.o
 .text.blk_get_if_type_name
                0x00000000000294d8       0x10 drivers/built-in.o
                0x00000000000294d8                blk_get_if_type_name
 .text.blk_get_devnum_by_typename
                0x00000000000294e8       0xe8 drivers/built-in.o
                0x00000000000294e8                blk_get_devnum_by_typename
 .text.blk_list_part
                0x00000000000295d0       0x74 drivers/built-in.o
                0x00000000000295d0                blk_list_part
 .text.blk_print_part_devnum
                0x0000000000029644       0x38 drivers/built-in.o
                0x0000000000029644                blk_print_part_devnum
 .text.blk_list_devices
                0x000000000002967c       0x68 drivers/built-in.o
                0x000000000002967c                blk_list_devices
 .text.blk_print_device_num
                0x00000000000296e4       0x3c drivers/built-in.o
                0x00000000000296e4                blk_print_device_num
 .text.blk_show_device
                0x0000000000029720       0x78 drivers/built-in.o
                0x0000000000029720                blk_show_device
 .text.blk_select_hwpart
                0x0000000000029798       0x30 drivers/built-in.o
                0x0000000000029798                blk_select_hwpart
 .text.blk_dselect_hwpart
                0x00000000000297c8        0x8 drivers/built-in.o
                0x00000000000297c8                blk_dselect_hwpart
 .text.blk_first_device
                0x00000000000297d0       0x60 drivers/built-in.o
                0x00000000000297d0                blk_first_device
 .text.blk_next_device
                0x0000000000029830       0x50 drivers/built-in.o
                0x0000000000029830                blk_next_device
 .text.blk_find_device
                0x0000000000029880       0x80 drivers/built-in.o
                0x0000000000029880                blk_find_device
 .text.blk_get_device
                0x0000000000029900       0x20 drivers/built-in.o
                0x0000000000029900                blk_get_device
 .text.blk_get_devnum_by_type
                0x0000000000029920       0x28 drivers/built-in.o
                0x0000000000029920                blk_get_devnum_by_type
 .text.blk_select_hwpart_devnum
                0x0000000000029948       0x2c drivers/built-in.o
                0x0000000000029948                blk_select_hwpart_devnum
 .text.blk_dread
                0x0000000000029974       0xa4 drivers/built-in.o
                0x0000000000029974                blk_dread
 .text.blk_read_devnum
                0x0000000000029a18       0x38 drivers/built-in.o
                0x0000000000029a18                blk_read_devnum
 .text.blk_dwrite
                0x0000000000029a50       0x58 drivers/built-in.o
                0x0000000000029a50                blk_dwrite
 .text.blk_write_devnum
                0x0000000000029aa8       0x38 drivers/built-in.o
                0x0000000000029aa8                blk_write_devnum
 .text.blk_derase
                0x0000000000029ae0       0x4c drivers/built-in.o
                0x0000000000029ae0                blk_derase
 .text.blk_find_max_devnum
                0x0000000000029b2c       0x78 drivers/built-in.o
                0x0000000000029b2c                blk_find_max_devnum
 .text.blk_next_free_devnum
                0x0000000000029ba4       0x24 drivers/built-in.o
                0x0000000000029ba4                blk_next_free_devnum
 .text.blk_create_device
                0x0000000000029bc8      0x1a8 drivers/built-in.o
                0x0000000000029bc8                blk_create_device
 .text.blk_create_devicef
                0x0000000000029d70       0xa0 drivers/built-in.o
                0x0000000000029d70                blk_create_devicef
 .text.blkcache_read
                0x0000000000029e10       0xf4 drivers/built-in.o
                0x0000000000029e10                blkcache_read
 .text.blkcache_fill
                0x0000000000029f04      0x138 drivers/built-in.o
                0x0000000000029f04                blkcache_fill
 .text.blkcache_invalidate
                0x000000000002a03c       0x84 drivers/built-in.o
                0x000000000002a03c                blkcache_invalidate
 .text.blkcache_configure
                0x000000000002a0c0       0x90 drivers/built-in.o
                0x000000000002a0c0                blkcache_configure
 .text.blkcache_stats
                0x000000000002a150       0x28 drivers/built-in.o
                0x000000000002a150                blkcache_stats
 .text.mmc_send_op_cond_iter
                0x000000000002a178       0x78 drivers/built-in.o
 .text.mmc_go_idle
                0x000000000002a1f0       0x4c drivers/built-in.o
 .text.mmc_set_capacity
                0x000000000002a23c       0xb0 drivers/built-in.o
 .text.mmc_mode_name
                0x000000000002a2ec       0x1c drivers/built-in.o
                0x000000000002a2ec                mmc_mode_name
 .text.mmc_send_status
                0x000000000002a308       0x64 drivers/built-in.o
                0x000000000002a308                mmc_send_status
 .text.__mmc_switch.constprop.0
                0x000000000002a36c      0x114 drivers/built-in.o
 .text.mmc_poll_for_busy
                0x000000000002a480       0xb4 drivers/built-in.o
                0x000000000002a480                mmc_poll_for_busy
 .text.mmc_set_blocklen
                0x000000000002a534       0x84 drivers/built-in.o
                0x000000000002a534                mmc_set_blocklen
 .text.mmc_bread
                0x000000000002a5b8      0x17c drivers/built-in.o
                0x000000000002a5b8                mmc_bread
 .text.mmc_send_ext_csd
                0x000000000002a734       0x4c drivers/built-in.o
                0x000000000002a734                mmc_send_ext_csd
 .text.mmc_read_and_compare_ext_csd
                0x000000000002a780       0xac drivers/built-in.o
 .text.mmc_set_card_speed.constprop.0
                0x000000000002a82c       0x98 drivers/built-in.o
 .text.mmc_switch
                0x000000000002a8c4        0x4 drivers/built-in.o
                0x000000000002a8c4                mmc_switch
 .text.mmc_startup_v4
                0x000000000002a8c8      0x368 drivers/built-in.o
 .text.mmc_boot_wp
                0x000000000002ac30       0x10 drivers/built-in.o
                0x000000000002ac30                mmc_boot_wp
 .text.mmc_switch_part
                0x000000000002ac40       0x74 drivers/built-in.o
                0x000000000002ac40                mmc_switch_part
 .text.mmc_hwpart_config
                0x000000000002acb4      0x454 drivers/built-in.o
                0x000000000002acb4                mmc_hwpart_config
 .text.mmc_set_clock
                0x000000000002b108       0x30 drivers/built-in.o
                0x000000000002b108                mmc_set_clock
 .text.mmc_startup
                0x000000000002b138      0xc80 drivers/built-in.o
 .text.mmc_dump_capabilities
                0x000000000002bdb8        0x4 drivers/built-in.o
                0x000000000002bdb8                mmc_dump_capabilities
 .text.mmc_get_op_cond
                0x000000000002bdbc      0x240 drivers/built-in.o
                0x000000000002bdbc                mmc_get_op_cond
 .text.mmc_start_init
                0x000000000002bffc       0x5c drivers/built-in.o
                0x000000000002bffc                mmc_start_init
 .text.mmc_init
                0x000000000002c058      0x108 drivers/built-in.o
                0x000000000002c058                mmc_init
 .text.mmc_set_dsr
                0x000000000002c160        0xc drivers/built-in.o
                0x000000000002c160                mmc_set_dsr
 .text.mmc_initialize
                0x000000000002c16c       0xd0 drivers/built-in.o
                0x000000000002c16c                mmc_initialize
 .text.mmc_blk_probe
                0x000000000002c23c       0x18 drivers/built-in.o
 .text.dm_mmc_set_ios
                0x000000000002c254       0x20 drivers/built-in.o
                0x000000000002c254                dm_mmc_set_ios
 .text.mmc_set_ios
                0x000000000002c274        0x8 drivers/built-in.o
                0x000000000002c274                mmc_set_ios
 .text.dm_mmc_wait_dat0
                0x000000000002c27c       0x20 drivers/built-in.o
                0x000000000002c27c                dm_mmc_wait_dat0
 .text.mmc_wait_dat0
                0x000000000002c29c        0x8 drivers/built-in.o
                0x000000000002c29c                mmc_wait_dat0
 .text.dm_mmc_get_wp
                0x000000000002c2a4       0x20 drivers/built-in.o
                0x000000000002c2a4                dm_mmc_get_wp
 .text.mmc_getwp
                0x000000000002c2c4        0x8 drivers/built-in.o
                0x000000000002c2c4                mmc_getwp
 .text.dm_mmc_get_cd
                0x000000000002c2cc       0x20 drivers/built-in.o
                0x000000000002c2cc                dm_mmc_get_cd
 .text.mmc_getcd
                0x000000000002c2ec        0x8 drivers/built-in.o
                0x000000000002c2ec                mmc_getcd
 .text.dm_mmc_host_power_cycle
                0x000000000002c2f4       0x20 drivers/built-in.o
                0x000000000002c2f4                dm_mmc_host_power_cycle
 .text.mmc_host_power_cycle
                0x000000000002c314        0x8 drivers/built-in.o
                0x000000000002c314                mmc_host_power_cycle
 .text.dm_mmc_deferred_probe
                0x000000000002c31c       0x20 drivers/built-in.o
                0x000000000002c31c                dm_mmc_deferred_probe
 .text.mmc_deferred_probe
                0x000000000002c33c        0x8 drivers/built-in.o
                0x000000000002c33c                mmc_deferred_probe
 .text.mmc_get_mmc_dev
                0x000000000002c344       0x24 drivers/built-in.o
                0x000000000002c344                mmc_get_mmc_dev
 .text.dm_mmc_get_b_max
                0x000000000002c368       0x48 drivers/built-in.o
                0x000000000002c368                dm_mmc_get_b_max
 .text.mmc_get_b_max
                0x000000000002c3b0        0x8 drivers/built-in.o
                0x000000000002c3b0                mmc_get_b_max
 .text.dm_mmc_send_cmd
                0x000000000002c3b8       0x44 drivers/built-in.o
                0x000000000002c3b8                dm_mmc_send_cmd
 .text.mmc_send_cmd
                0x000000000002c3fc        0x8 drivers/built-in.o
                0x000000000002c3fc                mmc_send_cmd
 .text.mmc_select_hwpart
                0x000000000002c404       0x68 drivers/built-in.o
 .text.find_mmc_device
                0x000000000002c46c       0x4c drivers/built-in.o
                0x000000000002c46c                find_mmc_device
 .text.get_mmc_num
                0x000000000002c4b8       0x18 drivers/built-in.o
                0x000000000002c4b8                get_mmc_num
 .text.mmc_get_blk_desc
                0x000000000002c4d0       0x28 drivers/built-in.o
                0x000000000002c4d0                mmc_get_blk_desc
 .text.mmc_do_preinit
                0x000000000002c4f8       0x68 drivers/built-in.o
                0x000000000002c4f8                mmc_do_preinit
 .text.print_mmc_devices
                0x000000000002c560       0xe8 drivers/built-in.o
                0x000000000002c560                print_mmc_devices
 .text.mmc_bind
                0x000000000002c648       0xc8 drivers/built-in.o
                0x000000000002c648                mmc_bind
 .text.mmc_berase
                0x000000000002c710      0x1bc drivers/built-in.o
                0x000000000002c710                mmc_berase
 .text.mmc_bwrite
                0x000000000002c8cc      0x198 drivers/built-in.o
                0x000000000002c8cc                mmc_bwrite
 .text.sdhci_reset
                0x000000000002ca64       0xa0 drivers/built-in.o
 .text.sdhci_deferred_probe
                0x000000000002cb04       0x34 drivers/built-in.o
 .text.sdhci_get_cd
                0x000000000002cb38       0xa0 drivers/built-in.o
 .text.sdhci_send_command
                0x000000000002cbd8      0x860 drivers/built-in.o
 .text.sdhci_set_clock
                0x000000000002d438      0x284 drivers/built-in.o
                0x000000000002d438                sdhci_set_clock
 .text.sdhci_set_ios
                0x000000000002d6bc      0x150 drivers/built-in.o
 .text.sdhci_probe
                0x000000000002d80c      0x220 drivers/built-in.o
                0x000000000002d80c                sdhci_probe
 .text.sdhci_setup_cfg
                0x000000000002da2c      0x310 drivers/built-in.o
                0x000000000002da2c                sdhci_setup_cfg
 .text.sdhci_bind
                0x000000000002dd3c        0x4 drivers/built-in.o
                0x000000000002dd3c                sdhci_bind
 .text.bcm2835_sdhci_readl
                0x000000000002dd40       0x10 drivers/built-in.o
 .text.bcm2835_sdhci_readw
                0x000000000002dd50       0x24 drivers/built-in.o
 .text.bcm2835_sdhci_readb
                0x000000000002dd74       0x24 drivers/built-in.o
 .text.bcm2835_sdhci_probe
                0x000000000002dd98       0xe0 drivers/built-in.o
 .text.bcm2835_sdhci_writel
                0x000000000002de78       0x48 drivers/built-in.o
 .text.bcm2835_sdhci_writew
                0x000000000002dec0       0x90 drivers/built-in.o
 .text.bcm2835_sdhci_writeb
                0x000000000002df50       0x64 drivers/built-in.o
 .text.bcm2835_sdhci_bind
                0x000000000002dfb4       0x20 drivers/built-in.o
 .text.bcm2835_set_ios
                0x000000000002dfd4      0x148 drivers/built-in.o
 .text.bcm2835_probe
                0x000000000002e11c      0x1a4 drivers/built-in.o
 .text.bcm2835_bind
                0x000000000002e2c0       0x20 drivers/built-in.o
 .text.bcm2835_read_wait_sdcmd.isra.0
                0x000000000002e2e0       0x70 drivers/built-in.o
 .text.bcm2835_finish_command
                0x000000000002e350       0xec drivers/built-in.o
 .text.bcm2835_send_cmd
                0x000000000002e43c      0x534 drivers/built-in.o
 .text.console_normal_set_row
                0x000000000002e970       0x58 drivers/built-in.o
 .text.console_normal_putc_xy
                0x000000000002e9c8       0xd4 drivers/built-in.o
 .text.console_normal_probe
                0x000000000002ea9c       0x48 drivers/built-in.o
 .text.console_normal_move_rows
                0x000000000002eae4       0x44 drivers/built-in.o
 .text.backlight_enable
                0x000000000002eb28       0x20 drivers/built-in.o
                0x000000000002eb28                backlight_enable
 .text.backlight_set_brightness
                0x000000000002eb48       0x20 drivers/built-in.o
                0x000000000002eb48                backlight_set_brightness
 .text.simple_panel_probe
                0x000000000002eb68       0x10 drivers/built-in.o
 .text.simple_panel_set_backlight
                0x000000000002eb78       0x2c drivers/built-in.o
 .text.simple_panel_enable_backlight
                0x000000000002eba4       0x24 drivers/built-in.o
 .text.simple_panel_ofdata_to_platdata
                0x000000000002ebc8       0x68 drivers/built-in.o
 .text.alloc_fb
                0x000000000002ec30       0x4c drivers/built-in.o
 .text.video_pre_remove
                0x000000000002ec7c       0x18 drivers/built-in.o
 .text.video_pre_probe
                0x000000000002ec94       0x2c drivers/built-in.o
 .text.video_post_bind
                0x000000000002ecc0       0x5c drivers/built-in.o
 .text.video_set_flush_dcache
                0x000000000002ed1c       0x14 drivers/built-in.o
                0x000000000002ed1c                video_set_flush_dcache
 .text.video_reserve
                0x000000000002ed30       0x4c drivers/built-in.o
                0x000000000002ed30                video_reserve
 .text.video_clear
                0x000000000002ed7c       0x50 drivers/built-in.o
                0x000000000002ed7c                video_clear
 .text.video_set_default_colors
                0x000000000002edcc       0x48 drivers/built-in.o
                0x000000000002edcc                video_set_default_colors
 .text.video_post_probe
                0x000000000002ee14       0xf8 drivers/built-in.o
 .text.video_sync
                0x000000000002ef0c       0x34 drivers/built-in.o
                0x000000000002ef0c                video_sync
 .text.video_sync_all
                0x000000000002ef40       0x44 drivers/built-in.o
                0x000000000002ef40                video_sync_all
 .text.video_get_xsize
                0x000000000002ef84       0x10 drivers/built-in.o
                0x000000000002ef84                video_get_xsize
 .text.video_get_ysize
                0x000000000002ef94       0x10 drivers/built-in.o
                0x000000000002ef94                video_get_ysize
 .text.set_cursor_position
                0x000000000002efa4       0x3c drivers/built-in.o
 .text.vidconsole_pre_probe
                0x000000000002efe0       0x2c drivers/built-in.o
 .text.parsenum
                0x000000000002f00c       0x24 drivers/built-in.o
 .text.vidconsole_post_probe
                0x000000000002f030       0x84 drivers/built-in.o
 .text.vidconsole_putc_xy
                0x000000000002f0b4       0x2c drivers/built-in.o
                0x000000000002f0b4                vidconsole_putc_xy
 .text.vidconsole_move_rows
                0x000000000002f0e0       0x2c drivers/built-in.o
                0x000000000002f0e0                vidconsole_move_rows
 .text.vidconsole_set_row
                0x000000000002f10c       0x20 drivers/built-in.o
                0x000000000002f10c                vidconsole_set_row
 .text.vidconsole_newline
                0x000000000002f12c       0xac drivers/built-in.o
 .text.vid_console_color
                0x000000000002f1d8       0x4c drivers/built-in.o
                0x000000000002f1d8                vid_console_color
 .text.vidconsole_put_char
                0x000000000002f224      0x568 drivers/built-in.o
                0x000000000002f224                vidconsole_put_char
 .text.vidconsole_putc
                0x000000000002f78c       0x20 drivers/built-in.o
 .text.do_video_puts
                0x000000000002f7ac       0x60 drivers/built-in.o
 .text.vidconsole_put_string
                0x000000000002f80c       0x34 drivers/built-in.o
                0x000000000002f80c                vidconsole_put_string
 .text.vidconsole_puts
                0x000000000002f840       0x20 drivers/built-in.o
 .text.vidconsole_position_cursor
                0x000000000002f860       0x70 drivers/built-in.o
                0x000000000002f860                vidconsole_position_cursor
 .text.do_video_setcursor
                0x000000000002f8d0       0x6c drivers/built-in.o
 .text.bcm2835_video_probe
                0x000000000002f93c      0x104 drivers/built-in.o
 .text._gpio_get_value
                0x000000000002fa40       0x34 drivers/gpio/built-in.o
 .text.gpio_post_bind
                0x000000000002fa74        0x8 drivers/gpio/built-in.o
 .text._dm_gpio_set_dir_flags
                0x000000000002fa7c       0xa8 drivers/gpio/built-in.o
 .text.get_function
                0x000000000002fb24       0xac drivers/gpio/built-in.o
 .text.gpio_to_device
                0x000000000002fbd0       0x80 drivers/gpio/built-in.o
 .text.check_reserved
                0x000000000002fc50       0x74 drivers/gpio/built-in.o
 .text.gpio_renumber
                0x000000000002fcc4       0x84 drivers/gpio/built-in.o
 .text.gpio_pre_remove
                0x000000000002fd48       0x4c drivers/gpio/built-in.o
 .text.gpio_post_probe
                0x000000000002fd94       0x38 drivers/gpio/built-in.o
 .text.dm_gpio_lookup_name
                0x000000000002fdcc      0x10c drivers/gpio/built-in.o
                0x000000000002fdcc                dm_gpio_lookup_name
 .text.gpio_lookup_name
                0x000000000002fed8       0x70 drivers/gpio/built-in.o
                0x000000000002fed8                gpio_lookup_name
 .text.gpio_xlate_offs_flags
                0x000000000002ff48       0x94 drivers/gpio/built-in.o
                0x000000000002ff48                gpio_xlate_offs_flags
 .text.dm_gpio_request
                0x000000000002ffdc       0x98 drivers/gpio/built-in.o
                0x000000000002ffdc                dm_gpio_request
 .text.dm_gpio_requestf
                0x0000000000030074       0x44 drivers/gpio/built-in.o
 .text.gpio_request
                0x00000000000300b8       0x2c drivers/gpio/built-in.o
                0x00000000000300b8                gpio_request
 .text._dm_gpio_free
                0x00000000000300e4       0x74 drivers/gpio/built-in.o
                0x00000000000300e4                _dm_gpio_free
 .text.gpio_free
                0x0000000000030158       0x28 drivers/gpio/built-in.o
                0x0000000000030158                gpio_free
 .text.gpio_direction_input
                0x0000000000030180       0x4c drivers/gpio/built-in.o
                0x0000000000030180                gpio_direction_input
 .text.gpio_direction_output
                0x00000000000301cc       0x54 drivers/gpio/built-in.o
                0x00000000000301cc                gpio_direction_output
 .text.dm_gpio_get_value
                0x0000000000030220       0x28 drivers/gpio/built-in.o
                0x0000000000030220                dm_gpio_get_value
 .text.dm_gpio_set_value
                0x0000000000030248       0x54 drivers/gpio/built-in.o
                0x0000000000030248                dm_gpio_set_value
 .text.dm_gpio_set_dir_flags
                0x000000000003029c       0x40 drivers/gpio/built-in.o
                0x000000000003029c                dm_gpio_set_dir_flags
 .text.gpio_request_tail
                0x00000000000302dc       0xe8 drivers/gpio/built-in.o
 .text.gpio_get_value
                0x00000000000303c4       0x24 drivers/gpio/built-in.o
                0x00000000000303c4                gpio_get_value
 .text.gpio_set_value
                0x00000000000303e8       0x2c drivers/gpio/built-in.o
                0x00000000000303e8                gpio_set_value
 .text.gpio_get_bank_info
                0x0000000000030414       0x1c drivers/gpio/built-in.o
                0x0000000000030414                gpio_get_bank_info
 .text.gpio_get_function
                0x0000000000030430        0xc drivers/gpio/built-in.o
                0x0000000000030430                gpio_get_function
 .text.gpio_get_raw_function
                0x000000000003043c        0xc drivers/gpio/built-in.o
                0x000000000003043c                gpio_get_raw_function
 .text.gpio_get_status
                0x0000000000030448      0x118 drivers/gpio/built-in.o
                0x0000000000030448                gpio_get_status
 .text.gpio_request_by_name
                0x0000000000030560       0x80 drivers/gpio/built-in.o
                0x0000000000030560                gpio_request_by_name
 .text.bcm2835_gpio_set_value
                0x00000000000305e0       0x48 drivers/gpio/built-in.o
 .text.bcm2835_gpio_direction_input
                0x0000000000030628       0x50 drivers/gpio/built-in.o
 .text.bcm2835_gpio_get_function
                0x0000000000030678       0x30 drivers/gpio/built-in.o
 .text.bcm2835_gpio_direction_output
                0x00000000000306a8       0x6c drivers/gpio/built-in.o
 .text.bcm2835_gpio_ofdata_to_platdata
                0x0000000000030714       0x2c drivers/gpio/built-in.o
 .text.bcm2835_gpio_probe
                0x0000000000030740       0x50 drivers/gpio/built-in.o
 .text.bcm2835_gpio_get_value
                0x0000000000030790       0x38 drivers/gpio/built-in.o
 .text.genphy_shutdown
                0x00000000000307c8        0x8 drivers/net/phy/built-in.o
                0x00000000000307c8                genphy_shutdown
 .text.genphy_restart_aneg
                0x00000000000307d0       0x84 drivers/net/phy/built-in.o
                0x00000000000307d0                genphy_restart_aneg
 .text.genphy_config_aneg
                0x0000000000030854      0x284 drivers/net/phy/built-in.o
                0x0000000000030854                genphy_config_aneg
 .text.genphy_config
                0x0000000000030ad8       0xec drivers/net/phy/built-in.o
                0x0000000000030ad8                genphy_config
 .text.genphy_update_link
                0x0000000000030bc4      0x194 drivers/net/phy/built-in.o
                0x0000000000030bc4                genphy_update_link
 .text.genphy_parse_link
                0x0000000000030d58      0x238 drivers/net/phy/built-in.o
                0x0000000000030d58                genphy_parse_link
 .text.genphy_startup
                0x0000000000030f90       0x20 drivers/net/phy/built-in.o
                0x0000000000030f90                genphy_startup
 .text.phy_register
                0x0000000000030fb0       0x28 drivers/net/phy/built-in.o
                0x0000000000030fb0                phy_register
 .text.genphy_init
                0x0000000000030fd8        0xc drivers/net/phy/built-in.o
                0x0000000000030fd8                genphy_init
 .text.phy_init
                0x0000000000030fe4       0x10 drivers/net/phy/built-in.o
                0x0000000000030fe4                phy_init
 .text.get_phy_id
                0x0000000000030ff4       0x70 drivers/net/phy/built-in.o
                0x0000000000030ff4                get_phy_id
 .text.get_phy_device_by_mask
                0x0000000000031064      0x2d8 drivers/net/phy/built-in.o
 .text.phy_reset
                0x000000000003133c       0xf8 drivers/net/phy/built-in.o
                0x000000000003133c                phy_reset
 .text.phy_find_by_mask
                0x0000000000031434       0x3c drivers/net/phy/built-in.o
                0x0000000000031434                phy_find_by_mask
 .text.phy_connect_dev
                0x0000000000031470       0x50 drivers/net/phy/built-in.o
                0x0000000000031470                phy_connect_dev
 .text.phy_connect
                0x00000000000314c0       0x54 drivers/net/phy/built-in.o
                0x00000000000314c0                phy_connect
 .text.phy_startup
                0x0000000000031514       0x1c drivers/net/phy/built-in.o
                0x0000000000031514                phy_startup
 .text._serial_putc
                0x0000000000031530       0x40 drivers/serial/built-in.o
 .text.__serial_getc
                0x0000000000031570       0x2c drivers/serial/built-in.o
 .text.__serial_tstc
                0x000000000003159c       0x24 drivers/serial/built-in.o
 .text.serial_stub_putc
                0x00000000000315c0        0x8 drivers/serial/built-in.o
 .text.serial_stub_getc
                0x00000000000315c8        0x8 drivers/serial/built-in.o
 .text.serial_stub_tstc
                0x00000000000315d0        0x8 drivers/serial/built-in.o
 .text.serial_pre_remove
                0x00000000000315d8       0x24 drivers/serial/built-in.o
 .text.serial_post_probe
                0x00000000000315fc       0xc0 drivers/serial/built-in.o
 .text.serial_stub_puts
                0x00000000000316bc       0x24 drivers/serial/built-in.o
 .text.serial_putc
                0x00000000000316e0       0x18 drivers/serial/built-in.o
                0x00000000000316e0                serial_putc
 .text.serial_puts
                0x00000000000316f8       0x30 drivers/serial/built-in.o
                0x00000000000316f8                serial_puts
 .text.serial_getc
                0x0000000000031728       0x14 drivers/serial/built-in.o
                0x0000000000031728                serial_getc
 .text.serial_tstc
                0x000000000003173c       0x14 drivers/serial/built-in.o
                0x000000000003173c                serial_tstc
 .text.serial_setbrg
                0x0000000000031750       0x30 drivers/serial/built-in.o
                0x0000000000031750                serial_setbrg
 .text.serial_init
                0x0000000000031780      0x184 drivers/serial/built-in.o
                0x0000000000031780                serial_init
 .text.serial_initialize
                0x0000000000031904        0x4 drivers/serial/built-in.o
                0x0000000000031904                serial_initialize
 .text.on_baudrate
                0x0000000000031908       0xec drivers/serial/built-in.o
 .text.serial_stdio_init
                0x00000000000319f4        0x4 drivers/serial/built-in.o
                0x00000000000319f4                serial_stdio_init
 .text.pl01x_serial_setbrg
                0x00000000000319f8      0x114 drivers/serial/built-in.o
                0x00000000000319f8                pl01x_serial_setbrg
 .text.pl01x_serial_probe
                0x0000000000031b0c       0x68 drivers/serial/built-in.o
                0x0000000000031b0c                pl01x_serial_probe
 .text.pl01x_serial_getc
                0x0000000000031b74       0x44 drivers/serial/built-in.o
                0x0000000000031b74                pl01x_serial_getc
 .text.pl01x_serial_putc
                0x0000000000031bb8       0x34 drivers/serial/built-in.o
                0x0000000000031bb8                pl01x_serial_putc
 .text.pl01x_serial_pending
                0x0000000000031bec       0x48 drivers/serial/built-in.o
                0x0000000000031bec                pl01x_serial_pending
 .text.pl01x_serial_ofdata_to_platdata
                0x0000000000031c34       0x6c drivers/serial/built-in.o
                0x0000000000031c34                pl01x_serial_ofdata_to_platdata
 .text.bcm283x_mu_serial_pending
                0x0000000000031ca0       0x2c drivers/serial/built-in.o
 .text.bcm283x_mu_serial_putc
                0x0000000000031ccc       0x38 drivers/serial/built-in.o
 .text.bcm283x_mu_serial_getc
                0x0000000000031d04       0x30 drivers/serial/built-in.o
 .text.bcm283x_mu_serial_setbrg
                0x0000000000031d34       0x68 drivers/serial/built-in.o
 .text.bcm283x_mu_serial_probe
                0x0000000000031d9c       0x28 drivers/serial/built-in.o
 .text.bcm283x_mu_serial_ofdata_to_platdata
                0x0000000000031dc4       0x90 drivers/serial/built-in.o
 .text.bcm283x_pl011_serial_setbrg
                0x0000000000031e54       0x28 drivers/serial/built-in.o
 .text.bcm283x_pl011_serial_ofdata_to_platdata
                0x0000000000031e7c       0x64 drivers/serial/built-in.o
 .text.usb_ether_register
                0x0000000000031ee0      0x11c drivers/usb/eth/built-in.o
                0x0000000000031ee0                usb_ether_register
 .text.usb_ether_receive
                0x0000000000031ffc       0xa4 drivers/usb/eth/built-in.o
                0x0000000000031ffc                usb_ether_receive
 .text.usb_ether_advance_rxbuf
                0x00000000000320a0       0x2c drivers/usb/eth/built-in.o
                0x00000000000320a0                usb_ether_advance_rxbuf
 .text.usb_ether_get_rx_bytes
                0x00000000000320cc       0x30 drivers/usb/eth/built-in.o
                0x00000000000320cc                usb_ether_get_rx_bytes
 .text.smsc95xx_eth_stop
                0x00000000000320fc        0x4 drivers/usb/eth/built-in.o
                0x00000000000320fc                smsc95xx_eth_stop
 .text.smsc95xx_send_common
                0x0000000000032100       0xb4 drivers/usb/eth/built-in.o
 .text.smsc95xx_eth_send
                0x00000000000321b4       0x20 drivers/usb/eth/built-in.o
                0x00000000000321b4                smsc95xx_eth_send
 .text.smsc95xx_eth_recv
                0x00000000000321d4       0xbc drivers/usb/eth/built-in.o
                0x00000000000321d4                smsc95xx_eth_recv
 .text.smsc95xx_free_pkt
                0x0000000000032290       0x24 drivers/usb/eth/built-in.o
 .text.smsc95xx_write_reg
                0x00000000000322b4       0x68 drivers/usb/eth/built-in.o
 .text.smsc95xx_read_reg
                0x000000000003231c       0x74 drivers/usb/eth/built-in.o
 .text.smsc95xx_phy_wait_not_busy
                0x0000000000032390       0x4c drivers/usb/eth/built-in.o
 .text.smsc95xx_mdio_read
                0x00000000000323dc       0x64 drivers/usb/eth/built-in.o
 .text.smsc95xx_eth_probe
                0x0000000000032440       0x20 drivers/usb/eth/built-in.o
 .text.smsc95xx_write_hwaddr_common.isra.0
                0x0000000000032460       0x64 drivers/usb/eth/built-in.o
 .text.smsc95xx_write_hwaddr
                0x00000000000324c4       0x38 drivers/usb/eth/built-in.o
                0x00000000000324c4                smsc95xx_write_hwaddr
 .text.smsc95xx_mdio_write
                0x00000000000324fc       0x54 drivers/usb/eth/built-in.o
 .text.smsc95xx_eth_start
                0x0000000000032550      0x470 drivers/usb/eth/built-in.o
 .text.smsc95xx_read_rom_hwaddr
                0x00000000000329c0      0x160 drivers/usb/eth/built-in.o
                0x00000000000329c0                smsc95xx_read_rom_hwaddr
 .text.lan7x_write_reg
                0x0000000000032b20       0x68 drivers/usb/eth/built-in.o
                0x0000000000032b20                lan7x_write_reg
 .text.lan7x_read_reg
                0x0000000000032b88       0x74 drivers/usb/eth/built-in.o
                0x0000000000032b88                lan7x_read_reg
 .text.lan7x_phy_wait_not_busy
                0x0000000000032bfc       0x68 drivers/usb/eth/built-in.o
 .text.lan7x_eeprom_confirm_not_busy
                0x0000000000032c64       0x68 drivers/usb/eth/built-in.o
 .text.lan7x_read_eeprom.part.0
                0x0000000000032ccc       0xbc drivers/usb/eth/built-in.o
 .text.lan7x_mdio_read
                0x0000000000032d88       0x68 drivers/usb/eth/built-in.o
                0x0000000000032d88                lan7x_mdio_read
 .text.lan7x_phylib_mdio_read
                0x0000000000032df0       0x24 drivers/usb/eth/built-in.o
 .text.lan7x_mdio_write
                0x0000000000032e14       0x54 drivers/usb/eth/built-in.o
                0x0000000000032e14                lan7x_mdio_write
 .text.lan7x_phylib_mdio_write
                0x0000000000032e68       0x2c drivers/usb/eth/built-in.o
 .text.lan7x_phylib_register
                0x0000000000032e94       0xa8 drivers/usb/eth/built-in.o
                0x0000000000032e94                lan7x_phylib_register
 .text.lan7x_eth_phylib_connect
                0x0000000000032f3c       0x50 drivers/usb/eth/built-in.o
                0x0000000000032f3c                lan7x_eth_phylib_connect
 .text.lan7x_eth_phylib_config_start
                0x0000000000032f8c       0x6c drivers/usb/eth/built-in.o
                0x0000000000032f8c                lan7x_eth_phylib_config_start
 .text.lan7x_update_flowcontrol
                0x0000000000032ff8       0xac drivers/usb/eth/built-in.o
                0x0000000000032ff8                lan7x_update_flowcontrol
 .text.lan7x_read_eeprom_mac
                0x00000000000330a4       0xcc drivers/usb/eth/built-in.o
                0x00000000000330a4                lan7x_read_eeprom_mac
 .text.lan7x_pmt_phy_reset
                0x0000000000033170       0xd4 drivers/usb/eth/built-in.o
                0x0000000000033170                lan7x_pmt_phy_reset
 .text.lan7x_basic_reset
                0x0000000000033244       0x94 drivers/usb/eth/built-in.o
                0x0000000000033244                lan7x_basic_reset
 .text.lan7x_eth_stop
                0x00000000000332d8        0x4 drivers/usb/eth/built-in.o
                0x00000000000332d8                lan7x_eth_stop
 .text.lan7x_eth_send
                0x00000000000332dc       0xc0 drivers/usb/eth/built-in.o
                0x00000000000332dc                lan7x_eth_send
 .text.lan7x_eth_recv
                0x000000000003339c       0xb8 drivers/usb/eth/built-in.o
                0x000000000003339c                lan7x_eth_recv
 .text.lan7x_free_pkt
                0x0000000000033454       0x24 drivers/usb/eth/built-in.o
                0x0000000000033454                lan7x_free_pkt
 .text.lan7x_eth_remove
                0x0000000000033478       0x2c drivers/usb/eth/built-in.o
                0x0000000000033478                lan7x_eth_remove
 .text.lan78xx_write_hwaddr
                0x00000000000334a4       0x9c drivers/usb/eth/built-in.o
                0x00000000000334a4                lan78xx_write_hwaddr
 .text.lan78xx_read_raw_otp
                0x0000000000033540      0x198 drivers/usb/eth/built-in.o
 .text.lan78xx_eth_start
                0x00000000000336d8      0x1d4 drivers/usb/eth/built-in.o
 .text.lan78xx_read_mac.isra.0
                0x00000000000338ac      0x174 drivers/usb/eth/built-in.o
 .text.lan78xx_read_rom_hwaddr
                0x0000000000033a20       0x58 drivers/usb/eth/built-in.o
                0x0000000000033a20                lan78xx_read_rom_hwaddr
 .text.lan78xx_eth_probe
                0x0000000000033a78       0xd8 drivers/usb/eth/built-in.o
 .text.usb_match_device
                0x0000000000033b50       0xe8 drivers/usb/host/built-in.o
 .text.usb_child_post_bind
                0x0000000000033c38       0x70 drivers/usb/host/built-in.o
 .text.usb_match_one_id_intf.isra.0
                0x0000000000033ca8       0x94 drivers/usb/host/built-in.o
 .text.remove_inactive_children.isra.0
                0x0000000000033d3c       0x6c drivers/usb/host/built-in.o
 .text.usb_lock_async
                0x0000000000033da8       0x24 drivers/usb/host/built-in.o
                0x0000000000033da8                usb_lock_async
 .text.usb_disable_asynch
                0x0000000000033dcc       0x20 drivers/usb/host/built-in.o
                0x0000000000033dcc                usb_disable_asynch
 .text.submit_int_msg
                0x0000000000033dec       0x4c drivers/usb/host/built-in.o
                0x0000000000033dec                submit_int_msg
 .text.submit_control_msg
                0x0000000000033e38       0x84 drivers/usb/host/built-in.o
                0x0000000000033e38                submit_control_msg
 .text.submit_bulk_msg
                0x0000000000033ebc       0x40 drivers/usb/host/built-in.o
                0x0000000000033ebc                submit_bulk_msg
 .text.usb_alloc_device
                0x0000000000033efc       0x28 drivers/usb/host/built-in.o
                0x0000000000033efc                usb_alloc_device
 .text.usb_reset_root_port
                0x0000000000033f24       0x28 drivers/usb/host/built-in.o
                0x0000000000033f24                usb_reset_root_port
 .text.usb_update_hub_device
                0x0000000000033f4c       0x28 drivers/usb/host/built-in.o
                0x0000000000033f4c                usb_update_hub_device
 .text.usb_get_max_xfer_size
                0x0000000000033f74       0x24 drivers/usb/host/built-in.o
                0x0000000000033f74                usb_get_max_xfer_size
 .text.usb_stop
                0x0000000000033f98       0xc0 drivers/usb/host/built-in.o
                0x0000000000033f98                usb_stop
 .text.usb_get_bus
                0x0000000000034058       0x30 drivers/usb/host/built-in.o
                0x0000000000034058                usb_get_bus
 .text.usb_scan_device
                0x0000000000034088      0x2b0 drivers/usb/host/built-in.o
                0x0000000000034088                usb_scan_device
 .text.usb_scan_bus.isra.0
                0x0000000000034338       0x74 drivers/usb/host/built-in.o
 .text.usb_init
                0x00000000000343ac      0x1b4 drivers/usb/host/built-in.o
                0x00000000000343ac                usb_init
 .text.usb_child_pre_probe
                0x0000000000034560       0x68 drivers/usb/host/built-in.o
                0x0000000000034560                usb_child_pre_probe
 .text.dwc_otg_core_reset
                0x00000000000345c8       0x94 drivers/usb/host/built-in.o
 .text.dwc2_usb_remove
                0x000000000003465c       0x3c drivers/usb/host/built-in.o
 .text.dwc2_usb_ofdata_to_platdata
                0x0000000000034698       0x60 drivers/usb/host/built-in.o
 .text.dwc2_usb_probe
                0x00000000000346f8      0x3a0 drivers/usb/host/built-in.o
 .text.wait_for_chhltd
                0x0000000000034a98       0x90 drivers/usb/host/built-in.o
                0x0000000000034a98                wait_for_chhltd
 .text.chunk_msg
                0x0000000000034b28      0x3e8 drivers/usb/host/built-in.o
                0x0000000000034b28                chunk_msg
 .text.dwc2_submit_control_msg
                0x0000000000034f10      0x52c drivers/usb/host/built-in.o
 .text._submit_bulk_msg
                0x000000000003543c       0x74 drivers/usb/host/built-in.o
                0x000000000003543c                _submit_bulk_msg
 .text.dwc2_submit_bulk_msg
                0x00000000000354b0       0x30 drivers/usb/host/built-in.o
 .text._submit_int_msg
                0x00000000000354e0       0x8c drivers/usb/host/built-in.o
                0x00000000000354e0                _submit_int_msg
 .text.dwc2_submit_int_msg
                0x000000000003556c       0x40 drivers/usb/host/built-in.o
 .text.env_get_yesno
                0x00000000000355ac       0x3c env/built-in.o
                0x00000000000355ac                env_get_yesno
 .text.env_get_default
                0x00000000000355e8       0x30 env/built-in.o
                0x00000000000355e8                env_get_default
 .text.env_set_default
                0x0000000000035618       0x98 env/built-in.o
                0x0000000000035618                env_set_default
 .text.env_set_default_vars
                0x00000000000356b0       0x3c env/built-in.o
                0x00000000000356b0                env_set_default_vars
 .text.env_import
                0x00000000000356ec       0xd4 env/built-in.o
                0x00000000000356ec                env_import
 .text.env_export
                0x00000000000357c0       0x88 env/built-in.o
                0x00000000000357c0                env_export
 .text.env_relocate
                0x0000000000035848       0x34 env/built-in.o
                0x0000000000035848                env_relocate
 .text.env_complete
                0x000000000003587c      0x1b0 env/built-in.o
                0x000000000003587c                env_complete
 .text.env_get_location
                0x0000000000035a2c       0x18 env/built-in.o
                0x0000000000035a2c                env_get_location
 .text.env_driver_lookup
                0x0000000000035a44       0x50 env/built-in.o
 .text.env_get_char_spec
                0x0000000000035a94        0xc env/built-in.o
                0x0000000000035a94                env_get_char_spec
 .text.env_get_char
                0x0000000000035aa0       0x20 env/built-in.o
                0x0000000000035aa0                env_get_char
 .text.env_load
                0x0000000000035ac0       0xa0 env/built-in.o
                0x0000000000035ac0                env_load
 .text.env_save
                0x0000000000035b60       0x84 env/built-in.o
                0x0000000000035b60                env_save
 .text.env_init
                0x0000000000035be4       0x88 env/built-in.o
                0x0000000000035be4                env_init
 .text.regex_callback
                0x0000000000035c6c      0x140 env/built-in.o
 .text.env_attr_walk
                0x0000000000035dac      0x114 env/built-in.o
                0x0000000000035dac                env_attr_walk
 .text.env_attr_lookup
                0x0000000000035ec0       0x80 env/built-in.o
                0x0000000000035ec0                env_attr_lookup
 .text.skip_num
                0x0000000000035f40       0x6c env/built-in.o
 .text.clear_flags
                0x0000000000035fac       0x10 env/built-in.o
 .text.on_flags
                0x0000000000035fbc       0x50 env/built-in.o
 .text.env_flags_parse_vartype
                0x000000000003600c       0x50 env/built-in.o
                0x000000000003600c                env_flags_parse_vartype
 .text.env_flags_parse_varaccess
                0x000000000003605c       0x50 env/built-in.o
                0x000000000003605c                env_flags_parse_varaccess
 .text.set_flags
                0x00000000000360ac       0xac env/built-in.o
 .text.eth_validate_ethaddr_str
                0x0000000000036158       0x94 env/built-in.o
                0x0000000000036158                eth_validate_ethaddr_str
 .text.env_flags_init
                0x00000000000361ec       0xd8 env/built-in.o
                0x00000000000361ec                env_flags_init
 .text.env_flags_validate
                0x00000000000362c4      0x288 env/built-in.o
                0x00000000000362c4                env_flags_validate
 .text.clear_callback
                0x000000000003654c       0x10 env/built-in.o
 .text.find_env_callback
                0x000000000003655c       0x5c env/built-in.o
 .text.on_callbacks
                0x00000000000365b8       0x50 env/built-in.o
 .text.set_callback
                0x0000000000036608       0x9c env/built-in.o
 .text.env_callback_init
                0x00000000000366a4       0xcc env/built-in.o
                0x00000000000366a4                env_callback_init
 .text.env_fat_save
                0x0000000000036770       0xf0 env/built-in.o
 .text.env_fat_load
                0x0000000000036860       0xf8 env/built-in.o
 .text.fs_probe_unsupported
                0x0000000000036958       0x18 fs/built-in.o
 .text.fs_ls_unsupported
                0x0000000000036970        0x8 fs/built-in.o
 .text.fs_exists_unsupported
                0x0000000000036978        0x8 fs/built-in.o
 .text.fs_size_unsupported
                0x0000000000036980        0x8 fs/built-in.o
 .text.fs_read_unsupported
                0x0000000000036988        0x8 fs/built-in.o
 .text.fs_close_unsupported
                0x0000000000036990        0x4 fs/built-in.o
 .text.fs_opendir_unsupported
                0x0000000000036994        0x8 fs/built-in.o
 .text.fs_get_info
                0x000000000003699c       0x2c fs/built-in.o
 .text.fs_write_unsupported
                0x00000000000369c8        0x8 fs/built-in.o
 .text.fs_mkdir_unsupported
                0x00000000000369d0        0x8 fs/built-in.o
 .text.fs_ln_unsupported
                0x00000000000369d8        0x8 fs/built-in.o
 .text.fs_uuid_unsupported
                0x00000000000369e0        0x8 fs/built-in.o
 .text.fs_unlink_unsupported
                0x00000000000369e8        0x8 fs/built-in.o
 .text.fs_get_type
                0x00000000000369f0       0x10 fs/built-in.o
                0x00000000000369f0                fs_get_type
 .text.fs_set_blk_dev
                0x0000000000036a00       0xbc fs/built-in.o
                0x0000000000036a00                fs_set_blk_dev
 .text.fs_set_blk_dev_with_part
                0x0000000000036abc       0xa8 fs/built-in.o
                0x0000000000036abc                fs_set_blk_dev_with_part
 .text.fs_close
                0x0000000000036b64       0x28 fs/built-in.o
                0x0000000000036b64                fs_close
 .text.fs_uuid  0x0000000000036b8c       0x28 fs/built-in.o
                0x0000000000036b8c                fs_uuid
 .text.fs_ls    0x0000000000036bb4       0x34 fs/built-in.o
                0x0000000000036bb4                fs_ls
 .text.fs_exists
                0x0000000000036be8       0x34 fs/built-in.o
                0x0000000000036be8                fs_exists
 .text.fs_size  0x0000000000036c1c       0x34 fs/built-in.o
                0x0000000000036c1c                fs_size
 .text.fs_read  0x0000000000036c50       0x58 fs/built-in.o
                0x0000000000036c50                fs_read
 .text.fs_write
                0x0000000000036ca8       0x80 fs/built-in.o
                0x0000000000036ca8                fs_write
 .text.fs_opendir
                0x0000000000036d28       0x88 fs/built-in.o
                0x0000000000036d28                fs_opendir
 .text.fs_readdir
                0x0000000000036db0       0x5c fs/built-in.o
                0x0000000000036db0                fs_readdir
 .text.fs_closedir
                0x0000000000036e0c       0x38 fs/built-in.o
                0x0000000000036e0c                fs_closedir
 .text.fs_ls_generic
                0x0000000000036e44       0xac fs/built-in.o
 .text.fs_unlink
                0x0000000000036ef0       0x34 fs/built-in.o
                0x0000000000036ef0                fs_unlink
 .text.fs_mkdir
                0x0000000000036f24       0x34 fs/built-in.o
                0x0000000000036f24                fs_mkdir
 .text.fs_ln    0x0000000000036f58       0x54 fs/built-in.o
                0x0000000000036f58                fs_ln
 .text.do_size  0x0000000000036fac       0x60 fs/built-in.o
                0x0000000000036fac                do_size
 .text.do_load  0x000000000003700c      0x334 fs/built-in.o
                0x000000000003700c                do_load
 .text.do_ls    0x0000000000037340       0x68 fs/built-in.o
                0x0000000000037340                do_ls
 .text.file_exists
                0x00000000000373a8       0x2c fs/built-in.o
                0x00000000000373a8                file_exists
 .text.do_save  0x00000000000373d4      0x178 fs/built-in.o
                0x00000000000373d4                do_save
 .text.do_fs_uuid
                0x000000000003754c       0x8c fs/built-in.o
                0x000000000003754c                do_fs_uuid
 .text.do_fs_type
                0x00000000000375d8       0x74 fs/built-in.o
                0x00000000000375d8                do_fs_type
 .text.do_rm    0x000000000003764c       0x48 fs/built-in.o
                0x000000000003764c                do_rm
 .text.do_mkdir
                0x0000000000037694       0x54 fs/built-in.o
                0x0000000000037694                do_mkdir
 .text.do_ln    0x00000000000376e8       0x4c fs/built-in.o
                0x00000000000376e8                do_ln
 .text.get_fs   0x0000000000037734        0xc fs/built-in.o
                0x0000000000037734                get_fs
 .text.ext4fs_free_node
                0x0000000000037740       0x20 fs/built-in.o
                0x0000000000037740                ext4fs_free_node
 .text.ext4fs_ls
                0x0000000000037760       0x98 fs/built-in.o
                0x0000000000037760                ext4fs_ls
 .text.ext4fs_exists
                0x00000000000377f8       0x1c fs/built-in.o
                0x00000000000377f8                ext4fs_exists
 .text.ext4fs_size
                0x0000000000037814        0x4 fs/built-in.o
                0x0000000000037814                ext4fs_size
 .text.ext4fs_probe
                0x0000000000037818       0x30 fs/built-in.o
                0x0000000000037818                ext4fs_probe
 .text.ext4fs_uuid
                0x0000000000037848       0x38 fs/built-in.o
                0x0000000000037848                ext4fs_uuid
 .text.ext_cache_init
                0x0000000000037880        0xc fs/built-in.o
                0x0000000000037880                ext_cache_init
 .text.ext_cache_fini
                0x000000000003788c       0x1c fs/built-in.o
                0x000000000003788c                ext_cache_fini
 .text.ext4fs_read_file
                0x00000000000378a8      0x3f0 fs/built-in.o
                0x00000000000378a8                ext4fs_read_file
 .text.ext4fs_read
                0x0000000000037c98       0x5c fs/built-in.o
                0x0000000000037c98                ext4fs_read
 .text.ext4_read_file
                0x0000000000037cf4       0x70 fs/built-in.o
                0x0000000000037cf4                ext4_read_file
 .text.ext_cache_read
                0x0000000000037d64       0x94 fs/built-in.o
                0x0000000000037d64                ext_cache_read
 .text.ext4fs_bg_get_inode_table_id
                0x0000000000037df8       0x2c fs/built-in.o
                0x0000000000037df8                ext4fs_bg_get_inode_table_id
 .text.ext4fs_read_inode
                0x0000000000037e24      0x1c4 fs/built-in.o
                0x0000000000037e24                ext4fs_read_inode
 .text.read_allocated_block
                0x0000000000037fe8      0x8e4 fs/built-in.o
                0x0000000000037fe8                read_allocated_block
 .text.ext4fs_reinit_global
                0x00000000000388cc       0xbc fs/built-in.o
                0x00000000000388cc                ext4fs_reinit_global
 .text.ext4fs_close
                0x0000000000038988       0x5c fs/built-in.o
                0x0000000000038988                ext4fs_close
 .text.ext4fs_iterate_dir
                0x00000000000389e4      0x2bc fs/built-in.o
                0x00000000000389e4                ext4fs_iterate_dir
 .text.ext4fs_find_file1
                0x0000000000038ca0      0x2c0 fs/built-in.o
 .text.ext4fs_find_file
                0x0000000000038f60       0x78 fs/built-in.o
                0x0000000000038f60                ext4fs_find_file
 .text.ext4fs_open
                0x0000000000038fd8       0xac fs/built-in.o
                0x0000000000038fd8                ext4fs_open
 .text.ext4fs_mount
                0x0000000000039084       0xe0 fs/built-in.o
                0x0000000000039084                ext4fs_mount
 .text.ext4fs_set_blk_dev
                0x0000000000039164       0x6c fs/built-in.o
                0x0000000000039164                ext4fs_set_blk_dev
 .text.ext4fs_devread
                0x00000000000391d0       0x40 fs/built-in.o
                0x00000000000391d0                ext4fs_devread
 .text.ext4_read_superblock
                0x0000000000039210       0x38 fs/built-in.o
                0x0000000000039210                ext4_read_superblock
 .text.downcase
                0x0000000000039248       0x40 fs/built-in.o
 .text.mkcksum  0x0000000000039288       0x50 fs/built-in.o
 .text.fat_itr_child
                0x00000000000392d8       0x78 fs/built-in.o
 .text.disk_read
                0x0000000000039350       0x5c fs/built-in.o
 .text.get_cluster
                0x00000000000393ac      0x164 fs/built-in.o
 .text.read_bootsectandvi
                0x0000000000039510      0x124 fs/built-in.o
 .text.fat_itr_root
                0x0000000000039634      0x1b8 fs/built-in.o
 .text.split_filename
                0x00000000000397ec       0xd8 fs/built-in.o
 .text.disk_write
                0x00000000000398c4       0x90 fs/built-in.o
 .text.flush_dirty_fat_buffer
                0x0000000000039954       0xa0 fs/built-in.o
 .text.get_fatent
                0x00000000000399f4      0x18c fs/built-in.o
 .text.next_dent
                0x0000000000039b80      0x154 fs/built-in.o
 .text.set_fatent_value
                0x0000000000039cd4      0x228 fs/built-in.o
 .text.determine_fatent
                0x0000000000039efc       0x40 fs/built-in.o
 .text.clear_fatent
                0x0000000000039f3c       0x78 fs/built-in.o
 .text.set_name
                0x0000000000039fb4      0x144 fs/built-in.o
 .text.set_sectors.isra.0
                0x000000000003a0f8      0x168 fs/built-in.o
 .text.normalize_longname
                0x000000000003a260       0x8c fs/built-in.o
 .text.fat_itr_next
                0x000000000003a2ec      0x26c fs/built-in.o
 .text.fat_itr_resolve
                0x000000000003a558      0x18c fs/built-in.o
 .text.flush_dir
                0x000000000003a6e4       0x70 fs/built-in.o
 .text.new_dir_table
                0x000000000003a754       0xcc fs/built-in.o
 .text.fill_dir_slot
                0x000000000003a820      0x250 fs/built-in.o
 .text.find_directory_entry
                0x000000000003aa70       0xb8 fs/built-in.o
 .text.set_contents
                0x000000000003ab28      0xac8 fs/built-in.o
 .text.fat_set_blk_dev
                0x000000000003b5f0       0xcc fs/built-in.o
                0x000000000003b5f0                fat_set_blk_dev
 .text.file_fat_detectfs
                0x000000000003b6bc      0x148 fs/built-in.o
                0x000000000003b6bc                file_fat_detectfs
 .text.fat_exists
                0x000000000003b804       0x6c fs/built-in.o
                0x000000000003b804                fat_exists
 .text.fat_size
                0x000000000003b870       0xbc fs/built-in.o
                0x000000000003b870                fat_size
 .text.file_fat_read_at
                0x000000000003b92c      0x44c fs/built-in.o
                0x000000000003b92c                file_fat_read_at
 .text.file_fat_read
                0x000000000003bd78       0x38 fs/built-in.o
                0x000000000003bd78                file_fat_read
 .text.fat_read_file
                0x000000000003bdb0       0x48 fs/built-in.o
                0x000000000003bdb0                fat_read_file
 .text.fat_opendir
                0x000000000003bdf8       0x80 fs/built-in.o
                0x000000000003bdf8                fat_opendir
 .text.fat_readdir
                0x000000000003be78       0x74 fs/built-in.o
                0x000000000003be78                fat_readdir
 .text.fat_closedir
                0x000000000003beec       0x1c fs/built-in.o
                0x000000000003beec                fat_closedir
 .text.fat_close
                0x000000000003bf08        0x4 fs/built-in.o
                0x000000000003bf08                fat_close
 .text.file_fat_write_at
                0x000000000003bf0c      0x2c0 fs/built-in.o
                0x000000000003bf0c                file_fat_write_at
 .text.file_fat_write
                0x000000000003c1cc       0x28 fs/built-in.o
                0x000000000003c1cc                file_fat_write
 .text.fat_unlink
                0x000000000003c1f4      0x2ac fs/built-in.o
                0x000000000003c1f4                fat_unlink
 .text.fat_mkdir
                0x000000000003c4a0      0x38c fs/built-in.o
                0x000000000003c4a0                fat_mkdir
 .text.fs_devread
                0x000000000003c82c      0x220 fs/built-in.o
                0x000000000003c82c                fs_devread
 .text.efi_uc_destroy
                0x000000000003ca4c       0x18 lib/built-in.o
 .text.efi_uc_init
                0x000000000003ca64       0x18 lib/built-in.o
 .text.check_node_type
                0x000000000003ca7c       0x8c lib/built-in.o
 .text.efi_uc_start
                0x000000000003cb08       0xd8 lib/built-in.o
 .text.efi_uc_supported
                0x000000000003cbe0       0xc0 lib/built-in.o
 .text.disconnect_child
                0x000000000003cca0       0x70 lib/built-in.o
 .text.efi_uc_stop
                0x000000000003cd10      0x148 lib/built-in.o
 .text.efi_driver_init
                0x000000000003ce58      0x108 lib/built-in.o
                0x000000000003ce58                efi_driver_init
 .text.efi_bl_write
                0x000000000003cf60       0x64 lib/built-in.o
 .text.efi_bl_read
                0x000000000003cfc4       0x64 lib/built-in.o
 .text.efi_bl_bind
                0x000000000003d028      0x128 lib/built-in.o
 .text.get_var.constprop.0
                0x000000000003d150       0xb4 lib/built-in.o
 .text.efi_deserialize_load_option
                0x000000000003d204       0x64 lib/built-in.o
                0x000000000003d204                efi_deserialize_load_option
 .text.try_load_entry
                0x000000000003d268      0x194 lib/built-in.o
 .text.efi_bootmgr_load
                0x000000000003d3fc      0x168 lib/built-in.o
                0x000000000003d3fc                efi_bootmgr_load
 .text.efi_is_event
                0x000000000003d564       0x40 lib/built-in.o
 .text.__efi_entry_check
                0x000000000003d5a4       0x38 lib/built-in.o
                0x000000000003d5a4                __efi_entry_check
 .text.__efi_exit_check
                0x000000000003d5dc       0x2c lib/built-in.o
                0x000000000003d5dc                __efi_exit_check
 .text.efi_process_event_queue
                0x000000000003d608       0x84 lib/built-in.o
 .text.efi_queue_event
                0x000000000003d68c       0x98 lib/built-in.o
 .text.efi_set_mem
                0x000000000003d724       0x28 lib/built-in.o
 .text.efi_copy_mem
                0x000000000003d74c       0x24 lib/built-in.o
 .text.efi_calculate_crc32
                0x000000000003d770       0x54 lib/built-in.o
 .text.efi_set_watchdog_timer
                0x000000000003d7c4       0x24 lib/built-in.o
 .text.efi_get_next_monotonic_count
                0x000000000003d7e8       0x50 lib/built-in.o
 .text.efi_register_protocol_notify
                0x000000000003d838       0xa4 lib/built-in.o
 .text.efi_close_event
                0x000000000003d8dc      0x10c lib/built-in.o
 .text.efi_free_pool_ext
                0x000000000003d9e8       0x24 lib/built-in.o
 .text.efi_allocate_pool_ext
                0x000000000003da0c       0x2c lib/built-in.o
 .text.efi_get_memory_map_ext
                0x000000000003da38       0x40 lib/built-in.o
 .text.efi_free_pages_ext
                0x000000000003da78       0x2c lib/built-in.o
 .text.efi_allocate_pages_ext
                0x000000000003daa4       0x34 lib/built-in.o
 .text.efi_raise_tpl
                0x000000000003dad8       0x34 lib/built-in.o
 .text.efi_save_gd
                0x000000000003db0c       0x10 lib/built-in.o
                0x000000000003db0c                efi_save_gd
 .text.efi_restore_gd
                0x000000000003db1c       0x18 lib/built-in.o
                0x000000000003db1c                efi_restore_gd
 .text.is_valid_tpl
                0x000000000003db34       0x2c lib/built-in.o
                0x000000000003db34                is_valid_tpl
 .text.efi_signal_event
                0x000000000003db60       0xb8 lib/built-in.o
                0x000000000003db60                efi_signal_event
 .text.efi_exit_boot_services
                0x000000000003dc18      0x15c lib/built-in.o
 .text.efi_signal_event_ext
                0x000000000003dd74       0x3c lib/built-in.o
 .text.efi_add_handle
                0x000000000003ddb0       0x34 lib/built-in.o
                0x000000000003ddb0                efi_add_handle
 .text.efi_create_handle
                0x000000000003dde4       0x34 lib/built-in.o
                0x000000000003dde4                efi_create_handle
 .text.efi_create_event
                0x000000000003de18      0x124 lib/built-in.o
                0x000000000003de18                efi_create_event
 .text.efi_create_event_ex
                0x000000000003df3c       0x68 lib/built-in.o
                0x000000000003df3c                efi_create_event_ex
 .text.efi_create_event_ext
                0x000000000003dfa4       0x48 lib/built-in.o
 .text.efi_timer_check
                0x000000000003dfec       0xa8 lib/built-in.o
                0x000000000003dfec                efi_timer_check
 .text.efi_stall
                0x000000000003e094       0x4c lib/built-in.o
 .text.efi_check_event
                0x000000000003e0e0       0x78 lib/built-in.o
 .text.efi_wait_for_event
                0x000000000003e158       0xe8 lib/built-in.o
 .text.efi_restore_tpl
                0x000000000003e240       0x30 lib/built-in.o
 .text.efi_set_timer
                0x000000000003e270       0xd4 lib/built-in.o
                0x000000000003e270                efi_set_timer
 .text.efi_set_timer_ext
                0x000000000003e344       0x34 lib/built-in.o
 .text.efi_search_obj
                0x000000000003e378       0x38 lib/built-in.o
                0x000000000003e378                efi_search_obj
 .text.efi_search_protocol
                0x000000000003e3b0       0x7c lib/built-in.o
                0x000000000003e3b0                efi_search_protocol
 .text.efi_remove_protocol
                0x000000000003e42c       0x54 lib/built-in.o
                0x000000000003e42c                efi_remove_protocol
 .text.efi_locate_protocol
                0x000000000003e480      0x118 lib/built-in.o
 .text.efi_open_protocol_information
                0x000000000003e598       0xe4 lib/built-in.o
 .text.efi_locate_handle
                0x000000000003e67c      0x180 lib/built-in.o
 .text.efi_locate_handle_buffer
                0x000000000003e7fc       0xc0 lib/built-in.o
                0x000000000003e7fc                efi_locate_handle_buffer
 .text.efi_locate_device_path
                0x000000000003e8bc      0x154 lib/built-in.o
 .text.efi_locate_handle_ext
                0x000000000003ea10       0x40 lib/built-in.o
 .text.efi_remove_all_protocols
                0x000000000003ea50       0x54 lib/built-in.o
                0x000000000003ea50                efi_remove_all_protocols
 .text.efi_delete_handle
                0x000000000003eaa4       0x34 lib/built-in.o
                0x000000000003eaa4                efi_delete_handle
 .text.efi_close_protocol
                0x000000000003ead8       0xd4 lib/built-in.o
                0x000000000003ead8                efi_close_protocol
 .text.efi_delete_image
                0x000000000003ebac       0xd0 lib/built-in.o
 .text.efi_open_protocol
                0x000000000003ec7c      0x284 lib/built-in.o
 .text.efi_disconnect_controller
                0x000000000003ef00      0x250 lib/built-in.o
 .text.efi_disconnect_all_drivers
                0x000000000003f150      0x17c lib/built-in.o
 .text.efi_handle_protocol
                0x000000000003f2cc       0x28 lib/built-in.o
                0x000000000003f2cc                efi_handle_protocol
 .text.efi_bind_controller
                0x000000000003f2f4       0xbc lib/built-in.o
 .text.efi_exit
                0x000000000003f3b0      0x144 lib/built-in.o
 .text.efi_uninstall_protocol
                0x000000000003f4f4       0xc8 lib/built-in.o
 .text.efi_uninstall_protocol_interface
                0x000000000003f5bc       0x5c lib/built-in.o
 .text.efi_start_image
                0x000000000003f618      0x158 lib/built-in.o
                0x000000000003f618                efi_start_image
 .text.efi_unload_image
                0x000000000003f770       0xcc lib/built-in.o
                0x000000000003f770                efi_unload_image
 .text.efi_protocols_per_handle
                0x000000000003f83c       0xd8 lib/built-in.o
 .text.efi_connect_controller
                0x000000000003f914      0x1c8 lib/built-in.o
 .text.efi_add_protocol
                0x000000000003fadc      0x128 lib/built-in.o
                0x000000000003fadc                efi_add_protocol
 .text.efi_install_protocol_interface
                0x000000000003fc04       0x7c lib/built-in.o
 .text.efi_install_multiple_protocol_interfaces
                0x000000000003fc80      0x12c lib/built-in.o
                0x000000000003fc80                efi_install_multiple_protocol_interfaces
 .text.efi_uninstall_multiple_protocol_interfaces
                0x000000000003fdac       0xe8 lib/built-in.o
 .text.efi_reinstall_protocol_interface
                0x000000000003fe94       0x70 lib/built-in.o
 .text.efi_install_configuration_table
                0x000000000003ff04      0x170 lib/built-in.o
                0x000000000003ff04                efi_install_configuration_table
 .text.efi_install_configuration_table_ext
                0x0000000000040074       0x24 lib/built-in.o
 .text.efi_setup_loaded_image
                0x0000000000040098      0x114 lib/built-in.o
                0x0000000000040098                efi_setup_loaded_image
 .text.efi_load_image
                0x00000000000401ac      0x2bc lib/built-in.o
                0x00000000000401ac                efi_load_image
 .text.efi_initialize_system_table
                0x0000000000040468       0x6c lib/built-in.o
                0x0000000000040468                efi_initialize_system_table
 .text.efi_cout_enable_cursor
                0x00000000000404d4       0x3c lib/built-in.o
 .text.efi_cout_set_cursor_position
                0x0000000000040510       0x8c lib/built-in.o
 .text.efi_cout_clear_screen
                0x000000000004059c       0x34 lib/built-in.o
 .text.efi_cout_set_attribute
                0x00000000000405d0       0x68 lib/built-in.o
 .text.efi_cout_test_string
                0x0000000000040638       0x14 lib/built-in.o
 .text.efi_cout_reset
                0x000000000004064c       0x44 lib/built-in.o
 .text.efi_cin_set_state
                0x0000000000040690       0x14 lib/built-in.o
 .text.efi_cout_output_string
                0x00000000000406a4      0x178 lib/built-in.o
 .text.efi_cin_unregister_key_notify
                0x000000000004081c       0x78 lib/built-in.o
 .text.efi_cin_empty_buffer
                0x0000000000040894       0x28 lib/built-in.o
 .text.efi_cin_reset
                0x00000000000408bc       0x2c lib/built-in.o
 .text.efi_cin_reset_ex
                0x00000000000408e8       0x2c lib/built-in.o
 .text.efi_cin_register_key_notify
                0x0000000000040914       0x94 lib/built-in.o
 .text.term_get_char
                0x00000000000409a8       0x44 lib/built-in.o
 .text.efi_cout_set_mode
                0x00000000000409ec       0x6c lib/built-in.o
 .text.efi_cout_query_mode
                0x0000000000040a58       0x80 lib/built-in.o
 .text.set_shift_mask
                0x0000000000040ad8       0x60 lib/built-in.o
                0x0000000000040ad8                set_shift_mask
 .text.analyze_modifiers.constprop.0
                0x0000000000040b38       0x8c lib/built-in.o
 .text.efi_cin_check
                0x0000000000040bc4      0x384 lib/built-in.o
 .text.efi_cin_read_key_stroke
                0x0000000000040f48       0x80 lib/built-in.o
 .text.efi_console_timer_notify
                0x0000000000040fc8       0x14 lib/built-in.o
 .text.efi_cin_read_key_stroke_ex
                0x0000000000040fdc       0xc0 lib/built-in.o
 .text.efi_key_notify
                0x000000000004109c       0x14 lib/built-in.o
 .text.efi_console_register
                0x00000000000410b0      0x31c lib/built-in.o
                0x00000000000410b0                efi_console_register
 .text.dp_size  0x00000000000413cc       0xa4 lib/built-in.o
 .text.dp_alloc
                0x0000000000041470       0x3c lib/built-in.o
 .text.dp_part_size
                0x00000000000414ac       0x50 lib/built-in.o
 .text.dp_part_node
                0x00000000000414fc      0x1d8 lib/built-in.o
 .text.dp_fill  0x00000000000416d4      0x200 lib/built-in.o
 .text.dp_part_fill
                0x00000000000418d4       0x64 lib/built-in.o
 .text.efi_dp_next
                0x0000000000041938       0x38 lib/built-in.o
                0x0000000000041938                efi_dp_next
 .text.efi_dp_match
                0x0000000000041970       0x70 lib/built-in.o
                0x0000000000041970                efi_dp_match
 .text.efi_dp_last_node
                0x00000000000419e0       0x38 lib/built-in.o
                0x00000000000419e0                efi_dp_last_node
 .text.efi_dp_instance_size
                0x0000000000041a18       0x4c lib/built-in.o
                0x0000000000041a18                efi_dp_instance_size
 .text.find_obj
                0x0000000000041a64      0x108 lib/built-in.o
 .text.efi_dp_find_obj
                0x0000000000041b6c       0x4c lib/built-in.o
                0x0000000000041b6c                efi_dp_find_obj
 .text.efi_dp_size
                0x0000000000041bb8       0x40 lib/built-in.o
                0x0000000000041bb8                efi_dp_size
 .text.efi_dp_dup
                0x0000000000041bf8       0x40 lib/built-in.o
                0x0000000000041bf8                efi_dp_dup
 .text.efi_dp_append
                0x0000000000041c38       0x84 lib/built-in.o
                0x0000000000041c38                efi_dp_append
 .text.efi_dp_append_node
                0x0000000000041cbc       0xe0 lib/built-in.o
                0x0000000000041cbc                efi_dp_append_node
 .text.efi_dp_create_device_node
                0x0000000000041d9c       0x48 lib/built-in.o
                0x0000000000041d9c                efi_dp_create_device_node
 .text.efi_dp_append_instance
                0x0000000000041de4       0x9c lib/built-in.o
                0x0000000000041de4                efi_dp_append_instance
 .text.efi_dp_get_next_instance
                0x0000000000041e80       0x88 lib/built-in.o
                0x0000000000041e80                efi_dp_get_next_instance
 .text.efi_dp_is_multi_instance
                0x0000000000041f08       0x3c lib/built-in.o
                0x0000000000041f08                efi_dp_is_multi_instance
 .text.efi_dp_from_part
                0x0000000000041f44       0x44 lib/built-in.o
                0x0000000000041f44                efi_dp_from_part
 .text.efi_dp_part_node
                0x0000000000041f88       0x38 lib/built-in.o
                0x0000000000041f88                efi_dp_part_node
 .text.efi_dp_from_file
                0x0000000000041fc0       0xfc lib/built-in.o
                0x0000000000041fc0                efi_dp_from_file
 .text.efi_dp_from_eth
                0x00000000000420bc       0x48 lib/built-in.o
                0x00000000000420bc                efi_dp_from_eth
 .text.efi_dp_from_mem
                0x0000000000042104       0xf0 lib/built-in.o
                0x0000000000042104                efi_dp_from_mem
 .text.efi_dp_split_file_path
                0x00000000000421f4       0x98 lib/built-in.o
                0x00000000000421f4                efi_dp_split_file_path
 .text.efi_dp_from_name
                0x000000000004228c      0x134 lib/built-in.o
                0x000000000004228c                efi_dp_from_name
 .text.dp_unknown
                0x00000000000423c0       0x24 lib/built-in.o
 .text.efi_convert_single_device_node_to_text
                0x00000000000423e4      0x5e4 lib/built-in.o
 .text.efi_str_to_u16
                0x00000000000429c8       0x54 lib/built-in.o
 .text.efi_convert_device_path_to_text
                0x0000000000042a1c       0x7c lib/built-in.o
 .text.efi_convert_device_node_to_text
                0x0000000000042a98       0x40 lib/built-in.o
 .text.efi_dp_str
                0x0000000000042ad8       0x2c lib/built-in.o
                0x0000000000042ad8                efi_dp_str
 .text.create_device_node
                0x0000000000042b04       0x34 lib/built-in.o
 .text.is_device_path_multi_instance
                0x0000000000042b38       0x24 lib/built-in.o
 .text.get_next_device_path_instance
                0x0000000000042b5c       0x2c lib/built-in.o
 .text.append_device_path_instance
                0x0000000000042b88       0x2c lib/built-in.o
 .text.append_device_node
                0x0000000000042bb4       0x2c lib/built-in.o
 .text.append_device_path
                0x0000000000042be0       0x2c lib/built-in.o
 .text.duplicate_device_path
                0x0000000000042c0c       0x24 lib/built-in.o
 .text.get_device_path_size
                0x0000000000042c30       0x2c lib/built-in.o
 .text.efi_file_open_ex
                0x0000000000042c5c        0x8 lib/built-in.o
 .text.efi_file_read_ex
                0x0000000000042c64        0x8 lib/built-in.o
 .text.efi_file_flush
                0x0000000000042c6c       0x14 lib/built-in.o
 .text.efi_file_getpos
                0x0000000000042c80       0x30 lib/built-in.o
 .text.set_blk_dev.isra.0
                0x0000000000042cb0        0xc lib/built-in.o
 .text.file_open
                0x0000000000042cbc      0x2fc lib/built-in.o
 .text.efi_open_volume
                0x0000000000042fb8       0x44 lib/built-in.o
 .text.efi_file_open
                0x0000000000042ffc       0xcc lib/built-in.o
 .text.efi_file_write
                0x00000000000430c8       0xe8 lib/built-in.o
 .text.efi_file_delete
                0x00000000000431b0       0x4c lib/built-in.o
 .text.efi_get_file_size
                0x00000000000431fc       0x38 lib/built-in.o
 .text.efi_file_getinfo
                0x0000000000043234      0x218 lib/built-in.o
 .text.efi_file_setpos
                0x000000000004344c       0x84 lib/built-in.o
 .text.efi_file_read
                0x00000000000434d0      0x1fc lib/built-in.o
 .text.efi_file_write_ex
                0x00000000000436cc        0x8 lib/built-in.o
 .text.efi_file_flush_ex
                0x00000000000436d4        0x8 lib/built-in.o
 .text.efi_file_close
                0x00000000000436dc       0x28 lib/built-in.o
 .text.efi_file_setinfo
                0x0000000000043704      0x138 lib/built-in.o
 .text.efi_file_from_path
                0x000000000004383c      0x13c lib/built-in.o
                0x000000000004383c                efi_file_from_path
 .text.efi_simple_file_system
                0x0000000000043978       0x44 lib/built-in.o
                0x0000000000043978                efi_simple_file_system
 .text.efi_hii_packagelist_exists
                0x00000000000439bc       0x34 lib/built-in.o
 .text.efi_hii_package_len
                0x00000000000439f0       0x18 lib/built-in.o
 .text.get_package_list_handle
                0x0000000000043a08       0x68 lib/built-in.o
 .text.unregister_package_notify
                0x0000000000043a70       0x14 lib/built-in.o
 .text.register_package_notify
                0x0000000000043a84       0x4c lib/built-in.o
 .text.export_package_lists
                0x0000000000043ad0       0x34 lib/built-in.o
 .text.list_package_lists
                0x0000000000043b04      0x104 lib/built-in.o
 .text.find_keyboard_layouts
                0x0000000000043c08       0xbc lib/built-in.o
 .text.get_keyboard_layout
                0x0000000000043cc4       0xdc lib/built-in.o
 .text.remove_guid_package
                0x0000000000043da0       0x38 lib/built-in.o
 .text.free_keyboard_layouts
                0x0000000000043dd8       0x50 lib/built-in.o
 .text.remove_keyboard_package
                0x0000000000043e28       0x44 lib/built-in.o
 .text.add_packages
                0x0000000000043e6c      0x3b0 lib/built-in.o
 .text.language_match
                0x000000000004421c       0x4c lib/built-in.o
 .text.get_secondary_languages
                0x0000000000044268       0x9c lib/built-in.o
 .text.get_string
                0x0000000000044304       0xcc lib/built-in.o
 .text.get_languages
                0x00000000000443d0       0xf4 lib/built-in.o
 .text.set_string
                0x00000000000444c4      0x11c lib/built-in.o
 .text.new_string
                0x00000000000445e0      0x120 lib/built-in.o
 .text.remove_strings_package
                0x0000000000044700       0x6c lib/built-in.o
 .text.free_packagelist
                0x000000000004476c       0x40 lib/built-in.o
 .text.remove_package_list
                0x00000000000447ac       0x44 lib/built-in.o
 .text.new_package_list
                0x00000000000447f0       0xcc lib/built-in.o
 .text.set_keyboard_layout
                0x00000000000448bc       0x14 lib/built-in.o
 .text.update_package_list
                0x00000000000448d0      0x118 lib/built-in.o
 .text.get_alt_config
                0x00000000000449e8       0x14 lib/built-in.o
 .text.config_to_block
                0x00000000000449fc       0x14 lib/built-in.o
 .text.block_to_config
                0x0000000000044a10       0x14 lib/built-in.o
 .text.route_config
                0x0000000000044a24       0x14 lib/built-in.o
 .text.export_config
                0x0000000000044a38       0x14 lib/built-in.o
 .text.extract_config
                0x0000000000044a4c       0x14 lib/built-in.o
 .text.efi_set_code_and_data_type
                0x0000000000044a60       0x70 lib/built-in.o
 .text.efi_print_image_infos
                0x0000000000044ad0       0xe0 lib/built-in.o
                0x0000000000044ad0                efi_print_image_infos
 .text.efi_load_pe
                0x0000000000044bb0      0x448 lib/built-in.o
                0x0000000000044bb0                efi_load_pe
 .text.efi_mem_cmp
                0x0000000000044ff8       0x30 lib/built-in.o
 .text.efi_check_allocated
                0x0000000000045028       0x98 lib/built-in.o
 .text.efi_find_free_memory
                0x00000000000450c0       0xc4 lib/built-in.o
 .text.efi_add_memory_map
                0x0000000000045184      0x49c lib/built-in.o
                0x0000000000045184                efi_add_memory_map
 .text.efi_allocate_pages
                0x0000000000045620       0xe0 lib/built-in.o
                0x0000000000045620                efi_allocate_pages
 .text.efi_alloc
                0x0000000000045700       0x50 lib/built-in.o
                0x0000000000045700                efi_alloc
 .text.efi_free_pages
                0x0000000000045750       0x9c lib/built-in.o
                0x0000000000045750                efi_free_pages
 .text.efi_allocate_pool
                0x00000000000457ec       0x9c lib/built-in.o
                0x00000000000457ec                efi_allocate_pool
 .text.efi_free_pool
                0x0000000000045888       0xd0 lib/built-in.o
                0x0000000000045888                efi_free_pool
 .text.efi_get_memory_map
                0x0000000000045958       0xdc lib/built-in.o
                0x0000000000045958                efi_get_memory_map
 .text.efi_add_conventional_memory_map
                0x0000000000045a34       0xf0 lib/built-in.o
                0x0000000000045a34                efi_add_conventional_memory_map
 .text.efi_add_known_memory
                0x0000000000045b24       0x54 lib/built-in.o
                0x0000000000045b24                efi_add_known_memory
 .text.efi_memory_init
                0x0000000000045b78       0xa0 lib/built-in.o
                0x0000000000045b78                efi_memory_init
 .text.efi_root_node_register
                0x0000000000045c18      0x138 lib/built-in.o
                0x0000000000045c18                efi_root_node_register
 .text.efi_reset_system_boottime
                0x0000000000045d50       0x84 lib/built-in.o
 .text.efi_set_time_boottime
                0x0000000000045dd4       0x14 lib/built-in.o
 .text.efi_get_time_boottime
                0x0000000000045de8       0x14 lib/built-in.o
 .text.efi_init_runtime_supported
                0x0000000000045dfc       0x54 lib/built-in.o
                0x0000000000045dfc                efi_init_runtime_supported
 .text.efi_set_virtual_address_map
                0x0000000000045e50      0x270 lib/built-in.o
 .text.efi_add_runtime_mmio
                0x00000000000460c0       0xa8 lib/built-in.o
                0x00000000000460c0                efi_add_runtime_mmio
 .text.efi_init_obj_list
                0x0000000000046168      0x1d0 lib/built-in.o
                0x0000000000046168                efi_init_obj_list
 .text.efi_str_to_fat
                0x0000000000046338       0xc8 lib/built-in.o
 .text.efi_fat_to_str
                0x0000000000046400       0x64 lib/built-in.o
 .text.efi_str_upr
                0x0000000000046464       0x30 lib/built-in.o
 .text.efi_stri_coll
                0x0000000000046494       0x60 lib/built-in.o
 .text.efi_str_lwr
                0x00000000000464f4       0x30 lib/built-in.o
 .text.next_lower
                0x0000000000046524       0x10 lib/built-in.o
 .text.metai_match
                0x0000000000046534      0x158 lib/built-in.o
 .text.efi_metai_match
                0x000000000004668c       0x2c lib/built-in.o
 .text.efi_to_native
                0x00000000000466b8       0x84 lib/built-in.o
 .text.prefix   0x000000000004673c       0x38 lib/built-in.o
 .text.parse_attr.part.0
                0x0000000000046774      0x190 lib/built-in.o
 .text.efi_get_variable_common.isra.0
                0x0000000000046904      0x200 lib/built-in.o
 .text.efi_get_variable
                0x0000000000046b04       0x68 lib/built-in.o
                0x0000000000046b04                efi_get_variable
 .text.efi_get_next_variable_name
                0x0000000000046b6c      0x288 lib/built-in.o
                0x0000000000046b6c                efi_get_next_variable_name
 .text.efi_set_nonvolatile_variable
                0x0000000000046df4       0x28 lib/built-in.o
                0x0000000000046df4                efi_set_nonvolatile_variable
 .text.efi_set_variable_internal
                0x0000000000046e1c       0x38 lib/built-in.o
 .text.efi_transfer_secure_state
                0x0000000000046e54      0x1ac lib/built-in.o
 .text.efi_set_variable_common
                0x0000000000047000      0x608 lib/built-in.o
 .text.efi_set_variable
                0x0000000000047608       0x50 lib/built-in.o
                0x0000000000047608                efi_set_variable
 .text.efi_variables_boot_exit_notify
                0x0000000000047658       0x30 lib/built-in.o
                0x0000000000047658                efi_variables_boot_exit_notify
 .text.efi_init_variables
                0x0000000000047688       0xa8 lib/built-in.o
                0x0000000000047688                efi_init_variables
 .text.efi_watchdog_timer_notify
                0x0000000000047730       0x44 lib/built-in.o
 .text.efi_set_watchdog
                0x0000000000047774       0x30 lib/built-in.o
                0x0000000000047774                efi_set_watchdog
 *fill*         0x00000000000477a4        0x4 
 .text.efi_watchdog_register
                0x00000000000477a8       0x7c lib/built-in.o
                0x00000000000477a8                efi_watchdog_register
 .text.gop_query_mode
                0x0000000000047824       0x7c lib/built-in.o
 .text.gop_blt_video_fill.isra.0
                0x00000000000478a0       0xd8 lib/built-in.o
 .text.gop_blt  0x0000000000047978      0x4d0 lib/built-in.o
                0x0000000000047978                gop_blt
 .text.gop_set_mode
                0x0000000000047e48       0x8c lib/built-in.o
 .text.efi_gop_register
                0x0000000000047ed4      0x150 lib/built-in.o
                0x0000000000047ed4                efi_gop_register
 .text.efi_disk_flush_blocks
                0x0000000000048024       0x14 lib/built-in.o
 .text.efi_disk_reset
                0x0000000000048038       0x14 lib/built-in.o
 .text.efi_disk_add_dev.isra.0.part.0
                0x000000000004804c      0x234 lib/built-in.o
 .text.efi_disk_read_blocks
                0x0000000000048280       0xf4 lib/built-in.o
 .text.efi_disk_write_blocks
                0x0000000000048374      0x104 lib/built-in.o
 .text.efi_fs_from_path
                0x0000000000048478       0x74 lib/built-in.o
                0x0000000000048478                efi_fs_from_path
 .text.efi_disk_create_partitions
                0x00000000000484ec      0x104 lib/built-in.o
                0x00000000000484ec                efi_disk_create_partitions
 .text.efi_disk_register
                0x00000000000485f0      0x118 lib/built-in.o
                0x00000000000485f0                efi_disk_register
 .text.efi_net_push
                0x0000000000048708       0x14 lib/built-in.o
 .text.efi_pxe_base_code_start
                0x000000000004871c        0x8 lib/built-in.o
 .text.efi_pxe_base_code_stop
                0x0000000000048724        0x8 lib/built-in.o
 .text.efi_pxe_base_code_discover
                0x000000000004872c        0x8 lib/built-in.o
 .text.efi_pxe_base_code_mtftp
                0x0000000000048734        0x8 lib/built-in.o
 .text.efi_pxe_base_code_udp_write
                0x000000000004873c        0x8 lib/built-in.o
 .text.efi_pxe_base_code_udp_read
                0x0000000000048744        0x8 lib/built-in.o
 .text.efi_pxe_base_code_set_ip_filter
                0x000000000004874c        0x8 lib/built-in.o
 .text.efi_pxe_base_code_arp
                0x0000000000048754        0x8 lib/built-in.o
 .text.efi_pxe_base_code_set_parameters
                0x000000000004875c        0x8 lib/built-in.o
 .text.efi_pxe_base_code_set_packets
                0x0000000000048764        0x8 lib/built-in.o
 .text.efi_network_timer_notify
                0x000000000004876c       0x9c lib/built-in.o
 .text.efi_net_nvdata
                0x0000000000048808       0x14 lib/built-in.o
 .text.efi_net_statistics
                0x000000000004881c       0x14 lib/built-in.o
 .text.efi_net_station_address
                0x0000000000048830       0x14 lib/built-in.o
 .text.efi_net_receive_filters
                0x0000000000048844       0x14 lib/built-in.o
 .text.efi_net_start
                0x0000000000048858       0x54 lib/built-in.o
 .text.efi_net_get_status
                0x00000000000488ac       0x80 lib/built-in.o
 .text.efi_net_receive
                0x000000000004892c      0x168 lib/built-in.o
 .text.efi_net_transmit
                0x0000000000048a94      0x13c lib/built-in.o
 .text.efi_net_mcastiptomac
                0x0000000000048bd0       0xc0 lib/built-in.o
 .text.efi_net_shutdown
                0x0000000000048c90       0x6c lib/built-in.o
 .text.efi_net_stop
                0x0000000000048cfc       0x48 lib/built-in.o
 .text.efi_net_initialize
                0x0000000000048d44       0x8c lib/built-in.o
 .text.efi_net_reset
                0x0000000000048dd0       0x68 lib/built-in.o
 .text.efi_pxe_base_code_set_station_ip
                0x0000000000048e38        0x8 lib/built-in.o
 .text.efi_pxe_base_code_dhcp
                0x0000000000048e40        0x8 lib/built-in.o
 .text.efi_net_set_dhcp_ack
                0x0000000000048e48       0x48 lib/built-in.o
                0x0000000000048e48                efi_net_set_dhcp_ack
 .text.efi_net_register
                0x0000000000048e90      0x330 lib/built-in.o
                0x0000000000048e90                efi_net_register
 .text.efi_smbios_register
                0x00000000000491c0       0x70 lib/built-in.o
                0x00000000000491c0                efi_smbios_register
 .text.get_code
                0x0000000000049230       0xc8 lib/built-in.o
 .text.read_string
                0x00000000000492f8       0x38 lib/built-in.o
 .text.read_console
                0x0000000000049330       0x14 lib/built-in.o
 .text.console_read_unicode
                0x0000000000049344       0x38 lib/built-in.o
                0x0000000000049344                console_read_unicode
 .text.utf8_get
                0x000000000004937c       0x10 lib/built-in.o
                0x000000000004937c                utf8_get
 .text.utf8_put
                0x000000000004938c       0xf4 lib/built-in.o
                0x000000000004938c                utf8_put
 .text.utf8_utf16_strnlen
                0x0000000000049480       0x60 lib/built-in.o
                0x0000000000049480                utf8_utf16_strnlen
 .text.utf16_get
                0x00000000000494e0       0x88 lib/built-in.o
                0x00000000000494e0                utf16_get
 .text.utf16_put
                0x0000000000049568       0x88 lib/built-in.o
                0x0000000000049568                utf16_put
 .text.utf8_utf16_strncpy
                0x00000000000495f0       0x78 lib/built-in.o
                0x00000000000495f0                utf8_utf16_strncpy
 .text.utf16_strnlen
                0x0000000000049668       0x48 lib/built-in.o
                0x0000000000049668                utf16_strnlen
 .text.utf16_utf8_strnlen
                0x00000000000496b0       0x74 lib/built-in.o
                0x00000000000496b0                utf16_utf8_strnlen
 .text.utf16_utf8_strncpy
                0x0000000000049724       0x78 lib/built-in.o
                0x0000000000049724                utf16_utf8_strncpy
 .text.utf_to_lower
                0x000000000004979c       0x40 lib/built-in.o
                0x000000000004979c                utf_to_lower
 .text.utf_to_upper
                0x00000000000497dc       0x40 lib/built-in.o
                0x00000000000497dc                utf_to_upper
 .text.u16_strncmp
                0x000000000004981c       0x38 lib/built-in.o
                0x000000000004981c                u16_strncmp
 .text.u16_strlen
                0x0000000000049854       0x30 lib/built-in.o
                0x0000000000049854                u16_strlen
 .text.u16_strdup
                0x0000000000049884       0x40 lib/built-in.o
                0x0000000000049884                u16_strdup
 .text.utf16_to_utf8
                0x00000000000498c4      0x10c lib/built-in.o
                0x00000000000498c4                utf16_to_utf8
 .text.crc16_ccitt
                0x00000000000499d0       0x38 lib/built-in.o
                0x00000000000499d0                crc16_ccitt
 .text.smbios_write_type127
                0x0000000000049a08       0x50 lib/built-in.o
 .text.smbios_write_type32
                0x0000000000049a58       0x50 lib/built-in.o
 .text.smbios_string_table_len
                0x0000000000049aa8       0x38 lib/built-in.o
 .text.smbios_add_string
                0x0000000000049ae0       0x68 lib/built-in.o
 .text.smbios_write_type3
                0x0000000000049b48       0x88 lib/built-in.o
 .text.smbios_write_type2
                0x0000000000049bd0       0x98 lib/built-in.o
 .text.smbios_write_type0
                0x0000000000049c68       0xf0 lib/built-in.o
 .text.smbios_write_type1
                0x0000000000049d58       0xc0 lib/built-in.o
 .text.smbios_write_type4
                0x0000000000049e18       0xd4 lib/built-in.o
 .text.write_smbios_table
                0x0000000000049eec      0x10c lib/built-in.o
                0x0000000000049eec                write_smbios_table
 .text.string_to_ip
                0x0000000000049ff8       0x90 lib/built-in.o
                0x0000000000049ff8                string_to_ip
 .text.string_to_enetaddr
                0x000000000004a088       0x64 lib/built-in.o
                0x000000000004a088                string_to_enetaddr
 .text.compute_ip_checksum
                0x000000000004a0ec       0x6c lib/built-in.o
                0x000000000004a0ec                compute_ip_checksum
 .text.ip_checksum_ok
                0x000000000004a158       0x1c lib/built-in.o
                0x000000000004a158                ip_checksum_ok
 .text.merge    0x000000000004a174       0x68 lib/built-in.o
 .text.list_sort
                0x000000000004a1dc      0x1a0 lib/built-in.o
                0x000000000004a1dc                list_sort
 .text.zcalloc  0x000000000004a37c        0x8 lib/built-in.o
                0x000000000004a37c                zcalloc
 .text.zcfree   0x000000000004a384        0x8 lib/built-in.o
                0x000000000004a384                zcfree
 .text.inflate_fast
                0x000000000004a38c      0x584 lib/built-in.o
                0x000000000004a38c                inflate_fast
 .text.inflate_table
                0x000000000004a910      0x4fc lib/built-in.o
                0x000000000004a910                inflate_table
 .text.inflateReset
                0x000000000004ae0c       0x78 lib/built-in.o
                0x000000000004ae0c                inflateReset
 .text.inflateInit2_
                0x000000000004ae84      0x100 lib/built-in.o
                0x000000000004ae84                inflateInit2_
 .text.inflateEnd
                0x000000000004af84       0x64 lib/built-in.o
                0x000000000004af84                inflateEnd
 .text.adler32  0x000000000004afe8      0x33c lib/built-in.o
                0x000000000004afe8                adler32
 .text.inflate  0x000000000004b324     0x14e0 lib/built-in.o
                0x000000000004b324                inflate
 .text.gzalloc  0x000000000004c804       0x10 lib/built-in.o
                0x000000000004c804                gzalloc
 .text.gzfree   0x000000000004c814        0x8 lib/built-in.o
                0x000000000004c814                gzfree
 .text.gzip_parse_header
                0x000000000004c81c       0xa8 lib/built-in.o
                0x000000000004c81c                gzip_parse_header
 .text.zunzip   0x000000000004c8c4      0x11c lib/built-in.o
                0x000000000004c8c4                zunzip
 .text.gunzip   0x000000000004c9e0       0x50 lib/built-in.o
                0x000000000004c9e0                gunzip
 .text.fdt_ro_probe_
                0x000000000004ca30       0x84 lib/built-in.o
                0x000000000004ca30                fdt_ro_probe_
 .text.fdt_header_size_
                0x000000000004cab4       0x30 lib/built-in.o
                0x000000000004cab4                fdt_header_size_
 .text.fdt_header_size
                0x000000000004cae4        0xc lib/built-in.o
                0x000000000004cae4                fdt_header_size
 .text.fdt_check_header
                0x000000000004caf0      0x154 lib/built-in.o
                0x000000000004caf0                fdt_check_header
 .text.fdt_offset_ptr
                0x000000000004cc44       0x6c lib/built-in.o
                0x000000000004cc44                fdt_offset_ptr
 .text.fdt_next_tag
                0x000000000004ccb0      0x118 lib/built-in.o
                0x000000000004ccb0                fdt_next_tag
 .text.fdt_check_node_offset_
                0x000000000004cdc8       0x3c lib/built-in.o
                0x000000000004cdc8                fdt_check_node_offset_
 .text.fdt_check_prop_offset_
                0x000000000004ce04       0x3c lib/built-in.o
                0x000000000004ce04                fdt_check_prop_offset_
 .text.fdt_next_node
                0x000000000004ce40       0xbc lib/built-in.o
                0x000000000004ce40                fdt_next_node
 .text.fdt_first_subnode
                0x000000000004cefc       0x34 lib/built-in.o
                0x000000000004cefc                fdt_first_subnode
 .text.fdt_next_subnode
                0x000000000004cf30       0x4c lib/built-in.o
                0x000000000004cf30                fdt_next_subnode
 .text.fdt_find_string_
                0x000000000004cf7c       0x58 lib/built-in.o
                0x000000000004cf7c                fdt_find_string_
 .text.fdt_move
                0x000000000004cfd4       0x48 lib/built-in.o
                0x000000000004cfd4                fdt_move
 .text.fdt_mem_rsv
                0x000000000004d01c       0x38 lib/built-in.o
 .text.nextprop_
                0x000000000004d054       0x54 lib/built-in.o
 .text.fdt_get_property_by_offset_
                0x000000000004d0a8       0x50 lib/built-in.o
 .text.fdt_get_string
                0x000000000004d0f8      0x104 lib/built-in.o
                0x000000000004d0f8                fdt_get_string
 .text.fdt_string
                0x000000000004d1fc        0x8 lib/built-in.o
                0x000000000004d1fc                fdt_string
 .text.fdt_get_mem_rsv
                0x000000000004d204       0x6c lib/built-in.o
                0x000000000004d204                fdt_get_mem_rsv
 .text.fdt_num_mem_rsv
                0x000000000004d270       0x4c lib/built-in.o
                0x000000000004d270                fdt_num_mem_rsv
 .text.fdt_get_name
                0x000000000004d2bc       0xa0 lib/built-in.o
                0x000000000004d2bc                fdt_get_name
 .text.fdt_subnode_offset_namelen
                0x000000000004d35c       0xd8 lib/built-in.o
                0x000000000004d35c                fdt_subnode_offset_namelen
 .text.fdt_subnode_offset
                0x000000000004d434       0x30 lib/built-in.o
                0x000000000004d434                fdt_subnode_offset
 .text.fdt_first_property_offset
                0x000000000004d464       0x20 lib/built-in.o
                0x000000000004d464                fdt_first_property_offset
 .text.fdt_next_property_offset
                0x000000000004d484       0x20 lib/built-in.o
                0x000000000004d484                fdt_next_property_offset
 .text.fdt_get_property_namelen_
                0x000000000004d4a4       0xbc lib/built-in.o
 .text.fdt_get_property_namelen
                0x000000000004d560       0x48 lib/built-in.o
                0x000000000004d560                fdt_get_property_namelen
 .text.fdt_get_property
                0x000000000004d5a8       0x3c lib/built-in.o
                0x000000000004d5a8                fdt_get_property
 .text.fdt_getprop_namelen
                0x000000000004d5e4       0x64 lib/built-in.o
                0x000000000004d5e4                fdt_getprop_namelen
 .text.fdt_getprop_by_offset
                0x000000000004d648       0xa0 lib/built-in.o
                0x000000000004d648                fdt_getprop_by_offset
 .text.fdt_getprop
                0x000000000004d6e8       0x3c lib/built-in.o
                0x000000000004d6e8                fdt_getprop
 .text.fdt_get_phandle
                0x000000000004d724       0x70 lib/built-in.o
                0x000000000004d724                fdt_get_phandle
 .text.fdt_find_max_phandle
                0x000000000004d794       0x68 lib/built-in.o
                0x000000000004d794                fdt_find_max_phandle
 .text.fdt_get_alias_namelen
                0x000000000004d7fc       0x44 lib/built-in.o
                0x000000000004d7fc                fdt_get_alias_namelen
 .text.fdt_path_offset_namelen
                0x000000000004d840       0xe0 lib/built-in.o
                0x000000000004d840                fdt_path_offset_namelen
 .text.fdt_path_offset
                0x000000000004d920       0x28 lib/built-in.o
                0x000000000004d920                fdt_path_offset
 .text.fdt_get_path
                0x000000000004d948      0x148 lib/built-in.o
                0x000000000004d948                fdt_get_path
 .text.fdt_supernode_atdepth_offset
                0x000000000004da90       0xac lib/built-in.o
                0x000000000004da90                fdt_supernode_atdepth_offset
 .text.fdt_node_depth
                0x000000000004db3c       0x28 lib/built-in.o
                0x000000000004db3c                fdt_node_depth
 .text.fdt_parent_offset
                0x000000000004db64       0x30 lib/built-in.o
                0x000000000004db64                fdt_parent_offset
 .text.fdt_node_offset_by_phandle
                0x000000000004db94       0x6c lib/built-in.o
                0x000000000004db94                fdt_node_offset_by_phandle
 .text.fdt_stringlist_search
                0x000000000004dc00       0xa4 lib/built-in.o
                0x000000000004dc00                fdt_stringlist_search
 .text.fdt_setprop_inplace_namelen_partial
                0x000000000004dca4       0x54 lib/built-in.o
                0x000000000004dca4                fdt_setprop_inplace_namelen_partial
 .text.fdt_setprop_inplace
                0x000000000004dcf8       0x74 lib/built-in.o
                0x000000000004dcf8                fdt_setprop_inplace
 .text.fdt_node_end_offset_
                0x000000000004dd6c       0x40 lib/built-in.o
                0x000000000004dd6c                fdt_node_end_offset_
 .text.fdt_strerror
                0x000000000004ddac       0x58 lib/built-in.o
                0x000000000004ddac                fdt_strerror
 .text.fdt_blocks_misordered_
                0x000000000004de04       0x64 lib/built-in.o
 .text.fdt_rw_probe_
                0x000000000004de68       0x60 lib/built-in.o
 .text.fdt_splice_
                0x000000000004dec8       0x9c lib/built-in.o
 .text.fdt_splice_mem_rsv_
                0x000000000004df64       0x54 lib/built-in.o
 .text.fdt_splice_struct_
                0x000000000004dfb8       0x4c lib/built-in.o
 .text.fdt_packblocks_
                0x000000000004e004       0x8c lib/built-in.o
 .text.fdt_add_property_
                0x000000000004e090      0x16c lib/built-in.o
 .text.fdt_add_mem_rsv
                0x000000000004e1fc       0x84 lib/built-in.o
                0x000000000004e1fc                fdt_add_mem_rsv
 .text.fdt_del_mem_rsv
                0x000000000004e280       0x58 lib/built-in.o
                0x000000000004e280                fdt_del_mem_rsv
 .text.fdt_set_name
                0x000000000004e2d8       0x88 lib/built-in.o
                0x000000000004e2d8                fdt_set_name
 .text.fdt_setprop_placeholder
                0x000000000004e360       0xd0 lib/built-in.o
                0x000000000004e360                fdt_setprop_placeholder
 .text.fdt_setprop
                0x000000000004e430       0x48 lib/built-in.o
                0x000000000004e430                fdt_setprop
 .text.fdt_delprop
                0x000000000004e478       0x68 lib/built-in.o
                0x000000000004e478                fdt_delprop
 .text.fdt_add_subnode_namelen
                0x000000000004e4e0       0xf0 lib/built-in.o
                0x000000000004e4e0                fdt_add_subnode_namelen
 .text.fdt_add_subnode
                0x000000000004e5d0       0x30 lib/built-in.o
                0x000000000004e5d0                fdt_add_subnode
 .text.fdt_del_node
                0x000000000004e600       0x50 lib/built-in.o
                0x000000000004e600                fdt_del_node
 .text.fdt_open_into
                0x000000000004e650      0x188 lib/built-in.o
                0x000000000004e650                fdt_open_into
 .text.fdt_cells
                0x000000000004e7d8       0x3c lib/built-in.o
 .text.fdt_address_cells
                0x000000000004e814       0x2c lib/built-in.o
                0x000000000004e814                fdt_address_cells
 .text.fdt_size_cells
                0x000000000004e840       0x1c lib/built-in.o
                0x000000000004e840                fdt_size_cells
 .text.overlay_phandle_add_offset
                0x000000000004e85c       0x8c lib/built-in.o
 .text.overlay_adjust_node_phandles
                0x000000000004e8e8       0x98 lib/built-in.o
 .text.overlay_update_local_node_references
                0x000000000004e980      0x1b4 lib/built-in.o
 .text.overlay_get_target
                0x000000000004eb34       0xcc lib/built-in.o
 .text.overlay_apply_node
                0x000000000004ec00      0x128 lib/built-in.o
 .text.fdt_overlay_apply
                0x000000000004ed28      0x6f4 lib/built-in.o
                0x000000000004ed28                fdt_overlay_apply
 .text.fdtdec_get_int
                0x000000000004f41c       0x34 lib/built-in.o
                0x000000000004f41c                fdtdec_get_int
 .text.get_prop_check_min_len
                0x000000000004f450       0x3c lib/built-in.o
 .text.fdtdec_get_is_enabled
                0x000000000004f48c       0x3c lib/built-in.o
                0x000000000004f48c                fdtdec_get_is_enabled
 .text.fdtdec_get_alias_seq
                0x000000000004f4c8      0x118 lib/built-in.o
                0x000000000004f4c8                fdtdec_get_alias_seq
 .text.fdtdec_get_chosen_prop
                0x000000000004f5e0       0x34 lib/built-in.o
                0x000000000004f5e0                fdtdec_get_chosen_prop
 .text.fdtdec_prepare_fdt
                0x000000000004f614       0x44 lib/built-in.o
                0x000000000004f614                fdtdec_prepare_fdt
 .text.fdtdec_get_int_array
                0x000000000004f658       0x64 lib/built-in.o
                0x000000000004f658                fdtdec_get_int_array
 .text.fdtdec_parse_phandle_with_args
                0x000000000004f6bc      0x14c lib/built-in.o
                0x000000000004f6bc                fdtdec_parse_phandle_with_args
 .text.fdtdec_locate_byte_array
                0x000000000004f808       0x24 lib/built-in.o
                0x000000000004f808                fdtdec_locate_byte_array
 .text.fdtdec_get_config_int
                0x000000000004f82c       0x40 lib/built-in.o
                0x000000000004f82c                fdtdec_get_config_int
 .text.fdtdec_get_config_string
                0x000000000004f86c       0x44 lib/built-in.o
                0x000000000004f86c                fdtdec_get_config_string
 .text.fdtdec_get_number
                0x000000000004f8b0       0x28 lib/built-in.o
                0x000000000004f8b0                fdtdec_get_number
 .text.fdtdec_get_addr_size_fixed
                0x000000000004f8d8       0xa8 lib/built-in.o
                0x000000000004f8d8                fdtdec_get_addr_size_fixed
 .text.fdtdec_get_addr_size
                0x000000000004f980       0x34 lib/built-in.o
                0x000000000004f980                fdtdec_get_addr_size
 .text.fdt_get_resource
                0x000000000004f9b4       0xe0 lib/built-in.o
                0x000000000004f9b4                fdt_get_resource
 .text.fdtdec_setup
                0x000000000004fa94       0x30 lib/built-in.o
                0x000000000004fa94                fdtdec_setup
 .text.qsort    0x000000000004fac4       0xf0 lib/built-in.o
                0x000000000004fac4                qsort
 .text.strcmp_compar
                0x000000000004fbb4        0xc lib/built-in.o
                0x000000000004fbb4                strcmp_compar
 .text.cmpkey   0x000000000004fbc0       0x14 lib/built-in.o
 .text._hdelete.isra.0
                0x000000000004fbd4       0x4c lib/built-in.o
 .text.drop_var_from_set.part.0
                0x000000000004fc20       0x50 lib/built-in.o
 .text.match_string
                0x000000000004fc70       0x8c lib/built-in.o
 .text.match_entry
                0x000000000004fcfc       0xb4 lib/built-in.o
 .text.hcreate_r
                0x000000000004fdb0       0x98 lib/built-in.o
                0x000000000004fdb0                hcreate_r
 .text.hdestroy_r
                0x000000000004fe48       0x6c lib/built-in.o
                0x000000000004fe48                hdestroy_r
 .text.hmatch_r
                0x000000000004feb4       0x9c lib/built-in.o
                0x000000000004feb4                hmatch_r
 .text.hsearch_r
                0x000000000004ff50      0x4a4 lib/built-in.o
                0x000000000004ff50                hsearch_r
 .text.hdelete_r
                0x00000000000503f4       0xf0 lib/built-in.o
                0x00000000000503f4                hdelete_r
 .text.hexport_r
                0x00000000000504e4      0x298 lib/built-in.o
                0x00000000000504e4                hexport_r
 .text.himport_r
                0x000000000005077c      0x420 lib/built-in.o
                0x000000000005077c                himport_r
 .text.hwalk_r  0x0000000000050b9c       0x5c lib/built-in.o
                0x0000000000050b9c                hwalk_r
 .text.display_options_get_banner_priv
                0x0000000000050bf8       0xa0 lib/built-in.o
                0x0000000000050bf8                display_options_get_banner_priv
 .text.display_options_get_banner
                0x0000000000050c98       0x10 lib/built-in.o
                0x0000000000050c98                display_options_get_banner
 .text.display_options
                0x0000000000050ca8       0x34 lib/built-in.o
                0x0000000000050ca8                display_options
 .text.print_size
                0x0000000000050cdc      0x144 lib/built-in.o
                0x0000000000050cdc                print_size
 .text.print_buffer
                0x0000000000050e20      0x1c8 lib/built-in.o
                0x0000000000050e20                print_buffer
 .text.crc32_wd
                0x0000000000050fe8        0x4 lib/built-in.o
                0x0000000000050fe8                crc32_wd
 .text.__div64_32
                0x0000000000050fec       0xe0 lib/built-in.o
                0x0000000000050fec                __div64_32
 .text.hang     0x00000000000510cc       0x1c lib/built-in.o
                0x00000000000510cc                hang
 .text.skip_spaces
                0x00000000000510e8       0x28 lib/built-in.o
                0x00000000000510e8                skip_spaces
 .text.strim    0x0000000000051110       0x5c lib/built-in.o
                0x0000000000051110                strim
 .text.lmb_overlaps_region
                0x000000000005116c       0x50 lib/built-in.o
 .text.lmb_add_region
                0x00000000000511bc      0x19c lib/built-in.o
 .text.lmb_dump_all
                0x0000000000051358        0x4 lib/built-in.o
                0x0000000000051358                lmb_dump_all
 .text.lmb_add  0x000000000005135c        0x4 lib/built-in.o
                0x000000000005135c                lmb_add
 .text.lmb_free
                0x0000000000051360       0xf0 lib/built-in.o
                0x0000000000051360                lmb_free
 .text.lmb_reserve
                0x0000000000051450        0x8 lib/built-in.o
                0x0000000000051450                lmb_reserve
 .text.__lmb_alloc_base
                0x0000000000051458       0xe0 lib/built-in.o
                0x0000000000051458                __lmb_alloc_base
 .text.lmb_alloc_base
                0x0000000000051538       0x34 lib/built-in.o
                0x0000000000051538                lmb_alloc_base
 .text.lmb_alloc
                0x000000000005156c        0x8 lib/built-in.o
                0x000000000005156c                lmb_alloc
 .text.lmb_alloc_addr
                0x0000000000051574       0x6c lib/built-in.o
                0x0000000000051574                lmb_alloc_addr
 .text.lmb_get_free_size
                0x00000000000515e0       0x80 lib/built-in.o
                0x00000000000515e0                lmb_get_free_size
 .text.board_lmb_reserve
                0x0000000000051660        0x4 lib/built-in.o
                0x0000000000051660                board_lmb_reserve
 .text.lmb_init_and_reserve
                0x0000000000051664       0x5c lib/built-in.o
                0x0000000000051664                lmb_init_and_reserve
 .text.lmb_init_and_reserve_range
                0x00000000000516c0       0x4c lib/built-in.o
                0x00000000000516c0                lmb_init_and_reserve_range
 .text.emit     0x000000000005170c       0x24 lib/built-in.o
 .text.store_char_in_data
                0x0000000000051730       0x28 lib/built-in.o
 .text.get_escape_char
                0x0000000000051758       0x9c lib/built-in.o
 .text.relocate
                0x00000000000517f4       0x40 lib/built-in.o
 .text.match    0x0000000000051834      0x3f4 lib/built-in.o
 .text.loop_greedy
                0x0000000000051c28       0x94 lib/built-in.o
 .text.loop_non_greedy
                0x0000000000051cbc       0x80 lib/built-in.o
 .text.quantifier
                0x0000000000051d3c       0x94 lib/built-in.o
 .text.fixup_branch
                0x0000000000051dd0       0x3c lib/built-in.o
 .text.compile  0x0000000000051e0c      0x340 lib/built-in.o
 .text.slre_compile
                0x000000000005214c       0xc8 lib/built-in.o
                0x000000000005214c                slre_compile
 .text.slre_match
                0x0000000000052214       0xa4 lib/built-in.o
                0x0000000000052214                slre_match
 .text.strncasecmp
                0x00000000000522b8       0x80 lib/built-in.o
                0x00000000000522b8                strncasecmp
 .text.strcasecmp
                0x0000000000052338        0x8 lib/built-in.o
                0x0000000000052338                strcasecmp
 .text.strcpy   0x0000000000052340       0x18 lib/built-in.o
                0x0000000000052340                strcpy
 .text.strncpy  0x0000000000052358       0x24 lib/built-in.o
                0x0000000000052358                strncpy
 .text.strcat   0x000000000005237c       0x30 lib/built-in.o
                0x000000000005237c                strcat
 .text.strncat  0x00000000000523ac       0x50 lib/built-in.o
                0x00000000000523ac                strncat
 .text.strcmp   0x00000000000523fc       0x28 lib/built-in.o
                0x00000000000523fc                strcmp
 .text.strncmp  0x0000000000052424       0x3c lib/built-in.o
                0x0000000000052424                strncmp
 .text.strchr   0x0000000000052460       0x2c lib/built-in.o
                0x0000000000052460                strchr
 .text.strlen   0x000000000005248c       0x20 lib/built-in.o
                0x000000000005248c                strlen
 .text.strlcpy  0x00000000000524ac       0x50 lib/built-in.o
                0x00000000000524ac                strlcpy
 .text.strrchr  0x00000000000524fc       0x38 lib/built-in.o
                0x00000000000524fc                strrchr
 .text.strnlen  0x0000000000052534       0x30 lib/built-in.o
                0x0000000000052534                strnlen
 .text.strdup   0x0000000000052564       0x34 lib/built-in.o
                0x0000000000052564                strdup
 .text.memmove  0x0000000000052598       0x3c lib/built-in.o
                0x0000000000052598                memmove
 .text.memcmp   0x00000000000525d4       0x34 lib/built-in.o
                0x00000000000525d4                memcmp
 .text.memscan  0x0000000000052608       0x28 lib/built-in.o
                0x0000000000052608                memscan
 .text.strstr   0x0000000000052630       0x60 lib/built-in.o
                0x0000000000052630                strstr
 .text.memchr   0x0000000000052690       0x30 lib/built-in.o
                0x0000000000052690                memchr
 .text.tick_to_time
                0x00000000000526c0       0x84 lib/built-in.o
 .text.get_tbclk
                0x0000000000052744        0xc lib/built-in.o
                0x0000000000052744                get_tbclk
 .text.timer_read_counter
                0x0000000000052750       0x54 lib/built-in.o
                0x0000000000052750                timer_read_counter
 .text.get_ticks
                0x00000000000527a4       0x2c lib/built-in.o
                0x00000000000527a4                get_ticks
 .text.timer_init
                0x00000000000527d0        0x8 lib/built-in.o
                0x00000000000527d0                timer_init
 .text.get_timer
                0x00000000000527d8       0x18 lib/built-in.o
                0x00000000000527d8                get_timer
 .text.timer_get_us
                0x00000000000527f0       0x20 lib/built-in.o
                0x00000000000527f0                timer_get_us
 .text.usec_to_tick
                0x0000000000052810       0x5c lib/built-in.o
                0x0000000000052810                usec_to_tick
 .text.__udelay
                0x000000000005286c       0x40 lib/built-in.o
                0x000000000005286c                __udelay
 .text.udelay   0x00000000000528ac       0x30 lib/built-in.o
                0x00000000000528ac                udelay
 .text.uuid_str_valid
                0x00000000000528dc       0x90 lib/built-in.o
                0x00000000000528dc                uuid_str_valid
 .text.uuid_str_to_bin
                0x000000000005296c      0x194 lib/built-in.o
                0x000000000005296c                uuid_str_to_bin
 .text.uuid_bin_to_str
                0x0000000000052b00       0xd0 lib/built-in.o
                0x0000000000052b00                uuid_bin_to_str
 .text.panic_finish
                0x0000000000052bd0       0x30 lib/built-in.o
 .text.panic    0x0000000000052c00       0x1c lib/built-in.o
                0x0000000000052c00                panic
 .text.put_dec_trunc
                0x0000000000052c1c       0xe0 lib/built-in.o
 *fill*         0x0000000000052cfc        0x4 
 .text.put_dec  0x0000000000052d00      0x17c lib/built-in.o
 .text.number   0x0000000000052e7c      0x2ec lib/built-in.o
 .text.string16
                0x0000000000053168       0xf4 lib/built-in.o
 .text.string   0x000000000005325c       0xf0 lib/built-in.o
 .text.vsnprintf_internal
                0x000000000005334c      0x7e0 lib/built-in.o
 .text.vscnprintf
                0x0000000000053b2c       0x24 lib/built-in.o
                0x0000000000053b2c                vscnprintf
 .text.snprintf
                0x0000000000053b50       0x28 lib/built-in.o
                0x0000000000053b50                snprintf
 .text.vsprintf
                0x0000000000053b78       0x10 lib/built-in.o
                0x0000000000053b78                vsprintf
 .text.sprintf  0x0000000000053b88       0x28 lib/built-in.o
                0x0000000000053b88                sprintf
 .text.printf   0x0000000000053bb0       0x4c lib/built-in.o
                0x0000000000053bb0                printf
 .text.vprintf  0x0000000000053bfc       0x38 lib/built-in.o
                0x0000000000053bfc                vprintf
 .text.simple_itoa
                0x0000000000053c34       0x58 lib/built-in.o
                0x0000000000053c34                simple_itoa
 .text._parse_integer_fixup_radix
                0x0000000000053c8c       0xdc lib/built-in.o
 .text.simple_strtoul
                0x0000000000053d68       0x78 lib/built-in.o
                0x0000000000053d68                simple_strtoul
 .text.strict_strtoul
                0x0000000000053de0       0x78 lib/built-in.o
                0x0000000000053de0                strict_strtoul
 .text.simple_strtol
                0x0000000000053e58       0x24 lib/built-in.o
                0x0000000000053e58                simple_strtol
 .text.ustrtoul
                0x0000000000053e7c       0x80 lib/built-in.o
                0x0000000000053e7c                ustrtoul
 .text.simple_strtoull
                0x0000000000053efc       0x9c lib/built-in.o
                0x0000000000053efc                simple_strtoull
 .text.ustrtoull
                0x0000000000053f98       0x98 lib/built-in.o
                0x0000000000053f98                ustrtoull
 .text.trailing_strtoln
                0x0000000000054030       0x6c lib/built-in.o
                0x0000000000054030                trailing_strtoln
 .text.trailing_strtol
                0x000000000005409c        0x8 lib/built-in.o
                0x000000000005409c                trailing_strtol
 .text.load_elf64_image_phdr
                0x00000000000540a4       0xbc lib/built-in.o
                0x00000000000540a4                load_elf64_image_phdr
 .text.load_elf64_image_shdr
                0x0000000000054160       0xd0 lib/built-in.o
                0x0000000000054160                load_elf64_image_shdr
 .text.load_elf_image_phdr
                0x0000000000054230       0x98 lib/built-in.o
                0x0000000000054230                load_elf_image_phdr
 .text.load_elf_image_shdr
                0x00000000000542c8       0xb0 lib/built-in.o
                0x00000000000542c8                load_elf_image_shdr
 .text.valid_elf_image
                0x0000000000054378       0x4c lib/built-in.o
                0x0000000000054378                valid_elf_image
 .text.arp_init
                0x00000000000543c4       0x50 net/built-in.o
                0x00000000000543c4                arp_init
 .text.arp_raw_request
                0x0000000000054414       0xd0 net/built-in.o
                0x0000000000054414                arp_raw_request
 .text.arp_request
                0x00000000000544e4       0x84 net/built-in.o
                0x00000000000544e4                arp_request
 .text.arp_timeout_check
                0x0000000000054568       0x90 net/built-in.o
                0x0000000000054568                arp_timeout_check
 .text.arp_receive
                0x00000000000545f8      0x250 net/built-in.o
                0x00000000000545f8                arp_receive
 .text.arp_is_waiting
                0x0000000000054848       0x18 net/built-in.o
                0x0000000000054848                arp_is_waiting
 .text.dhcp_extended
                0x0000000000054860      0x250 net/built-in.o
 .text.dhcp_process_options
                0x0000000000054ab0      0x240 net/built-in.o
 .text.dhcp_packet_process_options
                0x0000000000054cf0       0x84 net/built-in.o
 .text.dhcp_handler
                0x0000000000054d74      0x400 net/built-in.o
 .text.bootp_reset
                0x0000000000055174       0x44 net/built-in.o
                0x0000000000055174                bootp_reset
 .text.bootp_request
                0x00000000000551b8      0x28c net/built-in.o
                0x00000000000551b8                bootp_request
 .text.bootp_timeout_handler
                0x0000000000055444       0x70 net/built-in.o
 .text.dhcp_request
                0x00000000000554b4        0x4 net/built-in.o
                0x00000000000554b4                dhcp_request
 .text.eth_get_uclass_priv
                0x00000000000554b8       0x20 net/built-in.o
 .text.eth_pre_remove
                0x00000000000554d8       0x30 net/built-in.o
 .text.eth_write_hwaddr
                0x0000000000055508       0xd8 net/built-in.o
 .text.on_ethaddr
                0x00000000000555e0       0x80 net/built-in.o
 .text.eth_post_probe
                0x0000000000055660      0x224 net/built-in.o
 .text.eth_post_bind
                0x0000000000055884       0x34 net/built-in.o
 .text.eth_set_current_to_next
                0x00000000000558b8       0x3c net/built-in.o
                0x00000000000558b8                eth_set_current_to_next
 .text.eth_get_dev
                0x00000000000558f4       0x38 net/built-in.o
                0x00000000000558f4                eth_get_dev
 .text.eth_set_dev
                0x000000000005592c       0x40 net/built-in.o
                0x000000000005592c                eth_set_dev
 .text.eth_pre_unbind
                0x000000000005596c       0x28 net/built-in.o
 .text.eth_get_dev_by_name
                0x0000000000055994       0xf0 net/built-in.o
                0x0000000000055994                eth_get_dev_by_name
 .text.eth_get_ethaddr
                0x0000000000055a84       0x20 net/built-in.o
                0x0000000000055a84                eth_get_ethaddr
 .text.eth_halt_state_only
                0x0000000000055aa4       0x28 net/built-in.o
                0x0000000000055aa4                eth_halt_state_only
 .text.eth_get_dev_index
                0x0000000000055acc       0x24 net/built-in.o
                0x0000000000055acc                eth_get_dev_index
 .text.eth_init
                0x0000000000055af0       0xfc net/built-in.o
                0x0000000000055af0                eth_init
 .text.eth_is_active
                0x0000000000055bec       0x38 net/built-in.o
                0x0000000000055bec                eth_is_active
 .text.eth_halt
                0x0000000000055c24       0x44 net/built-in.o
                0x0000000000055c24                eth_halt
 .text.eth_send
                0x0000000000055c68       0x54 net/built-in.o
                0x0000000000055c68                eth_send
 .text.eth_rx   0x0000000000055cbc       0xac net/built-in.o
                0x0000000000055cbc                eth_rx
 .text.eth_initialize
                0x0000000000055d68      0x130 net/built-in.o
                0x0000000000055d68                eth_initialize
 .text.eth_env_get_enetaddr_by_index
                0x0000000000055e98       0x44 net/built-in.o
                0x0000000000055e98                eth_env_get_enetaddr_by_index
 .text.eth_env_set_enetaddr_by_index
                0x0000000000055edc       0x44 net/built-in.o
                0x0000000000055edc                eth_env_set_enetaddr_by_index
 .text.eth_common_init
                0x0000000000055f20       0x18 net/built-in.o
                0x0000000000055f20                eth_common_init
 .text.eth_mac_skip
                0x0000000000055f38       0x3c net/built-in.o
                0x0000000000055f38                eth_mac_skip
 .text.eth_get_name
                0x0000000000055f74       0x28 net/built-in.o
                0x0000000000055f74                eth_get_name
 .text.eth_current_changed
                0x0000000000055f9c       0x90 net/built-in.o
                0x0000000000055f9c                eth_current_changed
 .text.eth_try_another
                0x000000000005602c       0x80 net/built-in.o
                0x000000000005602c                eth_try_another
 .text.eth_set_current
                0x00000000000560ac       0x90 net/built-in.o
                0x00000000000560ac                eth_set_current
 .text.net_clear_handlers
                0x000000000005613c       0x34 net/built-in.o
 .text.start_again_timeout_handler
                0x0000000000056170       0x14 net/built-in.o
 .text.dummy_handler
                0x0000000000056184        0x4 net/built-in.o
 .text.on_ipaddr
                0x0000000000056188       0x30 net/built-in.o
 .text.on_gatewayip
                0x00000000000561b8       0x30 net/built-in.o
 .text.on_netmask
                0x00000000000561e8       0x30 net/built-in.o
 .text.on_serverip
                0x0000000000056218       0x30 net/built-in.o
 .text.net_init_loop.part.0
                0x0000000000056248       0x20 net/built-in.o
 .text.net_init
                0x0000000000056268       0x7c net/built-in.o
                0x0000000000056268                net_init
 .text.net_start_again
                0x00000000000562e4      0x168 net/built-in.o
                0x00000000000562e4                net_start_again
 .text.net_set_udp_handler
                0x000000000005644c       0x20 net/built-in.o
                0x000000000005644c                net_set_udp_handler
 .text.net_get_arp_handler
                0x000000000005646c       0x10 net/built-in.o
                0x000000000005646c                net_get_arp_handler
 .text.net_set_timeout_handler
                0x000000000005647c       0x5c net/built-in.o
                0x000000000005647c                net_set_timeout_handler
 .text.net_get_async_tx_pkt_buf
                0x00000000000564d8       0x24 net/built-in.o
                0x00000000000564d8                net_get_async_tx_pkt_buf
 .text.net_process_received_packet
                0x00000000000564fc      0x330 net/built-in.o
                0x00000000000564fc                net_process_received_packet
 .text.net_eth_hdr_size
                0x000000000005682c       0x44 net/built-in.o
                0x000000000005682c                net_eth_hdr_size
 .text.net_set_ether
                0x0000000000056870       0xa4 net/built-in.o
                0x0000000000056870                net_set_ether
 .text.net_update_ether
                0x0000000000056914       0x84 net/built-in.o
                0x0000000000056914                net_update_ether
 .text.net_set_ip_header
                0x0000000000056998       0xc8 net/built-in.o
                0x0000000000056998                net_set_ip_header
 .text.net_set_udp_header
                0x0000000000056a60       0x90 net/built-in.o
                0x0000000000056a60                net_set_udp_header
 .text.net_send_ip_packet
                0x0000000000056af0      0x114 net/built-in.o
                0x0000000000056af0                net_send_ip_packet
 .text.net_send_udp_packet
                0x0000000000056c04       0x30 net/built-in.o
                0x0000000000056c04                net_send_udp_packet
 .text.copy_filename
                0x0000000000056c34       0x4c net/built-in.o
                0x0000000000056c34                copy_filename
 .text.is_serverip_in_cmd
                0x0000000000056c80       0x20 net/built-in.o
                0x0000000000056c80                is_serverip_in_cmd
 .text.net_check_prereq
                0x0000000000056ca0      0x12c net/built-in.o
 .text.net_auto_load
                0x0000000000056dcc       0xa0 net/built-in.o
                0x0000000000056dcc                net_auto_load
 .text.net_loop
                0x0000000000056e6c      0x2b8 net/built-in.o
                0x0000000000056e6c                net_loop
 .text.net_parse_bootfile
                0x0000000000057124       0x78 net/built-in.o
                0x0000000000057124                net_parse_bootfile
 .text.ip_to_string
                0x000000000005719c       0x3c net/built-in.o
                0x000000000005719c                ip_to_string
 .text.string_to_vlan
                0x00000000000571d8       0x50 net/built-in.o
                0x00000000000571d8                string_to_vlan
 .text.on_nvlan
                0x0000000000057228       0x30 net/built-in.o
 .text.on_vlan  0x0000000000057258       0x30 net/built-in.o
 .text.rpc_lookup_reply
                0x0000000000057288       0xa4 net/built-in.o
 .text.nfs_mount_reply
                0x000000000005732c       0x94 net/built-in.o
 .text.nfs_umountall_reply
                0x00000000000573c0       0x88 net/built-in.o
 .text.nfs_lookup_reply
                0x0000000000057448      0x120 net/built-in.o
 .text.nfs_readlink_reply
                0x0000000000057568      0x138 net/built-in.o
 .text.basename
                0x00000000000576a0       0x38 net/built-in.o
 .text.nfs_read_reply
                0x00000000000576d8      0x180 net/built-in.o
 .text.rpc_req  0x0000000000057858      0x128 net/built-in.o
 .text.nfs_read_req
                0x0000000000057980       0xfc net/built-in.o
 .text.nfs_readlink_req
                0x0000000000057a7c       0xcc net/built-in.o
 .text.nfs_mount_req
                0x0000000000057b48       0xc4 net/built-in.o
 .text.nfs_umountall_req
                0x0000000000057c0c       0x84 net/built-in.o
 .text.nfs_lookup_req
                0x0000000000057c90      0x188 net/built-in.o
 .text.nfs_send
                0x0000000000057e18      0x150 net/built-in.o
 .text.nfs_handler
                0x0000000000057f68      0x24c net/built-in.o
 .text.nfs_timeout_handler
                0x00000000000581b4       0x60 net/built-in.o
 .text.nfs_start
                0x0000000000058214      0x208 net/built-in.o
                0x0000000000058214                nfs_start
 .text.ping_timeout_handler
                0x000000000005841c       0x1c net/built-in.o
 .text.ping_start
                0x0000000000058438      0x124 net/built-in.o
                0x0000000000058438                ping_start
 .text.ping_receive
                0x000000000005855c      0x114 net/built-in.o
                0x000000000005855c                ping_receive
 .text.tftp_send
                0x0000000000058670      0x200 net/built-in.o
 .text.tftp_handler
                0x0000000000058870      0x4f0 net/built-in.o
 .text.tftp_timeout_handler
                0x0000000000058d60       0x88 net/built-in.o
 .text.tftp_start
                0x0000000000058de8      0x3c0 net/built-in.o
                0x0000000000058de8                tftp_start
 .text.__udivsi3
                0x00000000000591a8       0x9c arch/arm/lib/lib.a(lib1funcs.o)
                0x00000000000591a8                __udivsi3
                0x00000000000591a8                __aeabi_uidiv
 .text.__divsi3
                0x0000000000059244       0xcc arch/arm/lib/lib.a(lib1funcs.o)
                0x0000000000059244                __aeabi_idiv
                0x0000000000059244                __divsi3
 .text.__aeabi_uidivmod
                0x0000000000059310       0x30 arch/arm/lib/lib.a(lib1funcs.o)
                0x0000000000059310                __aeabi_uidivmod
                0x0000000000059328                __aeabi_idivmod
 .text.Ldiv0    0x0000000000059340       0x10 arch/arm/lib/lib.a(lib1funcs.o)
 .text.__div0   0x0000000000059350        0x8 arch/arm/lib/lib.a(div0.o)
                0x0000000000059350                __div0
                0x0000000000059358                . = ALIGN (0x4)

.rodata         0x0000000000059358    0x1218c
 *(SORT_BY_ALIGNMENT(SORT_BY_NAME(.rodata*)))
 .rodata.efi_block_io_guid
                0x0000000000059358       0x10 lib/built-in.o
                0x0000000000059358                efi_block_io_guid
 .rodata.efi_file_handle_protocol
                0x0000000000059368       0x40 lib/built-in.o
 .rodata.efi_file_info_guid
                0x00000000000593a8       0x10 lib/built-in.o
                0x00000000000593a8                efi_file_info_guid
 .rodata.efi_file_system_info_guid
                0x00000000000593b8       0x10 lib/built-in.o
                0x00000000000593b8                efi_file_system_info_guid
 .rodata.efi_global_variable_guid
                0x00000000000593c8       0x10 lib/built-in.o
                0x00000000000593c8                efi_global_variable_guid
 .rodata.efi_gop_guid
                0x00000000000593d8       0x10 lib/built-in.o
 .rodata.efi_guid_device_path
                0x00000000000593e8       0x10 lib/built-in.o
                0x00000000000593e8                efi_guid_device_path
 .rodata.efi_guid_device_path_to_text_protocol
                0x00000000000593f8       0x10 lib/built-in.o
                0x00000000000593f8                efi_guid_device_path_to_text_protocol
 .rodata.efi_guid_device_path_utilities_protocol
                0x0000000000059408       0x10 lib/built-in.o
                0x0000000000059408                efi_guid_device_path_utilities_protocol
 .rodata.efi_guid_driver_binding_protocol
                0x0000000000059418       0x10 lib/built-in.o
                0x0000000000059418                efi_guid_driver_binding_protocol
 .rodata.efi_guid_event_group_exit_boot_services
                0x0000000000059428       0x10 lib/built-in.o
                0x0000000000059428                efi_guid_event_group_exit_boot_services
 .rodata.efi_guid_event_group_memory_map_change
                0x0000000000059438       0x10 lib/built-in.o
                0x0000000000059438                efi_guid_event_group_memory_map_change
 .rodata.efi_guid_event_group_reset_system
                0x0000000000059448       0x10 lib/built-in.o
                0x0000000000059448                efi_guid_event_group_reset_system
 .rodata.efi_guid_fdt
                0x0000000000059458       0x10 lib/built-in.o
                0x0000000000059458                efi_guid_fdt
 .rodata.efi_guid_hii_config_routing_protocol
                0x0000000000059468       0x10 lib/built-in.o
                0x0000000000059468                efi_guid_hii_config_routing_protocol
 .rodata.efi_guid_hii_database_protocol
                0x0000000000059478       0x10 lib/built-in.o
                0x0000000000059478                efi_guid_hii_database_protocol
 .rodata.efi_guid_hii_string_protocol
                0x0000000000059488       0x10 lib/built-in.o
                0x0000000000059488                efi_guid_hii_string_protocol
 .rodata.efi_guid_image_security_database
                0x0000000000059498       0x10 lib/built-in.o
                0x0000000000059498                efi_guid_image_security_database
 .rodata.efi_guid_loaded_image
                0x00000000000594a8       0x10 lib/built-in.o
                0x00000000000594a8                efi_guid_loaded_image
 .rodata.efi_guid_loaded_image_device_path
                0x00000000000594b8       0x10 lib/built-in.o
                0x00000000000594b8                efi_guid_loaded_image_device_path
 .rodata.efi_guid_text_input_ex_protocol
                0x00000000000594c8       0x10 lib/built-in.o
                0x00000000000594c8                efi_guid_text_input_ex_protocol
 .rodata.efi_guid_text_input_protocol
                0x00000000000594d8       0x10 lib/built-in.o
                0x00000000000594d8                efi_guid_text_input_protocol
 .rodata.efi_guid_text_output_protocol
                0x00000000000594e8       0x10 lib/built-in.o
                0x00000000000594e8                efi_guid_text_output_protocol
 .rodata.efi_guid_unicode_collation_protocol2
                0x00000000000594f8       0x10 lib/built-in.o
                0x00000000000594f8                efi_guid_unicode_collation_protocol2
 .rodata.efi_net_guid
                0x0000000000059508       0x10 lib/built-in.o
 .rodata.efi_pxe_base_code_protocol_guid
                0x0000000000059518       0x10 lib/built-in.o
 .rodata.efi_rt_properties_table_guid
                0x0000000000059528       0x10 lib/built-in.o
 .rodata.efi_simple_file_system_protocol_guid
                0x0000000000059538       0x10 lib/built-in.o
                0x0000000000059538                efi_simple_file_system_protocol_guid
 .rodata.efi_system_volume_label_id
                0x0000000000059548       0x10 lib/built-in.o
                0x0000000000059548                efi_system_volume_label_id
 .rodata.efi_u_boot_guid
                0x0000000000059558       0x10 lib/built-in.o
                0x0000000000059558                efi_u_boot_guid
 .rodata.smbios_guid
                0x0000000000059568       0x10 lib/built-in.o
 .rodata.system_guid
                0x0000000000059578       0x10 disk/built-in.o
 .rodata        0x0000000000059588       0x80 arch/arm/lib/built-in.o
 .rodata        0x0000000000059608       0x14 drivers/built-in.o
 .rodata.CSWTCH.32
                0x000000000005961c       0x20 common/built-in.o
 .rodata.CSWTCH.32
                0x000000000005963c       0x20 disk/built-in.o
 .rodata.CSWTCH.45
                0x000000000005965c       0x14 cmd/built-in.o
 .rodata.bcm2835_match
                0x0000000000059670       0x10 drivers/built-in.o
 .rodata.bcm2835_ops
                0x0000000000059680       0x54 drivers/built-in.o
 .rodata.bcm2835_pinctrl_id
                0x00000000000596d4       0x18 drivers/built-in.o
 .rodata.bcm2835_sdhci_match
                0x00000000000596ec       0x18 drivers/built-in.o
 .rodata.bcm2835_video_ids
                0x0000000000059704       0x18 drivers/built-in.o
 .rodata.bcm283x_mu_serial_id
                0x000000000005971c       0x10 drivers/serial/built-in.o
 .rodata.bcm283x_mu_serial_ops
                0x000000000005972c       0x20 drivers/serial/built-in.o
 .rodata.bcm283x_pl011_serial_id
                0x000000000005974c       0x10 drivers/serial/built-in.o
 .rodata.bcm283x_pl011_serial_ops
                0x000000000005975c       0x20 drivers/serial/built-in.o
 .rodata.boot_os
                0x000000000005977c       0x60 common/built-in.o
 .rodata.color  0x00000000000597dc       0x40 lib/built-in.o
 .rodata.colors
                0x000000000005981c       0xc0 drivers/built-in.o
 .rodata.driver_ops
                0x00000000000598dc        0xc lib/built-in.o
 .rodata.dwc2_eptype
                0x00000000000598e8       0x10 drivers/usb/host/built-in.o
 .rodata.dwc2_usb_ids
                0x00000000000598f8       0x20 drivers/usb/host/built-in.o
 .rodata.efi_blk_ops
                0x0000000000059918       0x10 lib/built-in.o
 .rodata.efi_device_path_to_text
                0x0000000000059928        0x8 lib/built-in.o
                0x0000000000059928                efi_device_path_to_text
 .rodata.efi_device_path_utilities
                0x0000000000059930       0x20 lib/built-in.o
                0x0000000000059930                efi_device_path_utilities
 .rodata.efi_hii_config_routing
                0x0000000000059950       0x18 lib/built-in.o
                0x0000000000059950                efi_hii_config_routing
 .rodata.efi_hii_database
                0x0000000000059968       0x2c lib/built-in.o
                0x0000000000059968                efi_hii_database
 .rodata.efi_hii_string
                0x0000000000059994       0x14 lib/built-in.o
                0x0000000000059994                efi_hii_string
 .rodata.efi_unicode_collation_protocol2
                0x00000000000599a8       0x1c lib/built-in.o
                0x00000000000599a8                efi_unicode_collation_protocol2
 .rodata.env_flags_varaccess_mask
                0x00000000000599c4       0x10 env/built-in.o
 .rodata.ext_csd_bus_width
                0x00000000000599d4       0x3c drivers/built-in.o
 .rodata.fbase  0x0000000000059a10       0x10 drivers/built-in.o
 .rodata.fdt_errtable
                0x0000000000059a20       0x4c lib/built-in.o
 .rodata.fdt_member_table
                0x0000000000059a6c       0x28 cmd/built-in.o
 .rodata.freqs.9858
                0x0000000000059a94       0x34 drivers/built-in.o
 .rodata.generic_simple_bus_ids
                0x0000000000059ac8       0x18 drivers/built-in.o
 .rodata.gpio_bcm2835_ops
                0x0000000000059ae0       0x28 drivers/gpio/built-in.o
 .rodata.gpio_function
                0x0000000000059b08       0x14 drivers/gpio/built-in.o
 .rodata.hub_id_table
                0x0000000000059b1c       0x30 common/built-in.o
 .rodata.if_type_uclass_id
                0x0000000000059b4c       0x34 drivers/built-in.o
 .rodata.if_typename_str
                0x0000000000059b80       0x34 drivers/built-in.o
 .rodata.init_sequence_f
                0x0000000000059bb4       0xb4 common/built-in.o
 .rodata.kbd_id_table
                0x0000000000059c68       0x30 common/built-in.o
 .rodata.keywords
                0x0000000000059c98       0xa0 cmd/built-in.o
 .rodata.lan78xx_eth_id_table
                0x0000000000059d38       0x48 drivers/usb/eth/built-in.o
 .rodata.lan78xx_eth_ops
                0x0000000000059d80       0x20 drivers/usb/eth/built-in.o
 .rodata.machines
                0x0000000000059da0       0x10 lib/built-in.o
 .rodata.mass_storage_id_table
                0x0000000000059db0       0x30 common/built-in.o
 .rodata.mii_reg_desc_tbl
                0x0000000000059de0       0x80 cmd/built-in.o
 .rodata.mmc_blk_ops
                0x0000000000059e60       0x10 drivers/built-in.o
 .rodata.mmc_modes_by_pref
                0x0000000000059e70       0x20 drivers/built-in.o
 .rodata.mmc_versions.10241
                0x0000000000059e90       0x24 drivers/built-in.o
 .rodata.names.9853
                0x0000000000059eb4       0x34 drivers/built-in.o
 .rodata.op_adv
                0x0000000000059ee8      0x100 cmd/built-in.o
                0x0000000000059ee8                op_adv
 .rodata.op_table
                0x0000000000059fe8       0x68 cmd/built-in.o
 .rodata.pl01x_serial_id
                0x000000000005a050       0x18 drivers/serial/built-in.o
 .rodata.pl01x_serial_ops
                0x000000000005a068       0x20 drivers/serial/built-in.o
 .rodata.reg_0_desc_tbl
                0x000000000005a088       0x78 cmd/built-in.o
 .rodata.reg_10_desc_tbl
                0x000000000005a100       0x60 cmd/built-in.o
 .rodata.reg_1_desc_tbl
                0x000000000005a160       0xc0 cmd/built-in.o
 .rodata.reg_2_desc_tbl
                0x000000000005a220        0xc cmd/built-in.o
 .rodata.reg_3_desc_tbl
                0x000000000005a22c       0x24 cmd/built-in.o
 .rodata.reg_4_desc_tbl
                0x000000000005a250       0x90 cmd/built-in.o
 .rodata.reg_5_desc_tbl
                0x000000000005a2e0       0x90 cmd/built-in.o
 .rodata.reg_9_desc_tbl
                0x000000000005a370       0x60 cmd/built-in.o
 .rodata.root_info
                0x000000000005a3d0        0x8 drivers/built-in.o
 .rodata.rpi_model_unknown
                0x000000000005a3d8        0xc board/raspberrypi/rpi/built-in.o
 .rodata.rpi_models_new_scheme
                0x000000000005a3e4       0xd8 board/raspberrypi/rpi/built-in.o
 .rodata.rpi_models_old_scheme
                0x000000000005a4bc      0x108 board/raspberrypi/rpi/built-in.o
 .rodata.sd_au_size.10116
                0x000000000005a5c4       0x40 drivers/built-in.o
 .rodata.sd_modes_by_pref
                0x000000000005a604       0x10 drivers/built-in.o
 .rodata.sdhci_ops
                0x000000000005a614       0x20 drivers/built-in.o
                0x000000000005a614                sdhci_ops
 .rodata.simple_panel_ids
                0x000000000005a634       0x38 drivers/built-in.o
 .rodata.simple_panel_ops
                0x000000000005a66c        0xc drivers/built-in.o
 .rodata.smbios_write_funcs
                0x000000000005a678       0x1c lib/built-in.o
 .rodata.smsc95xx_eth_id_table
                0x000000000005a694       0xa8 drivers/usb/eth/built-in.o
 .rodata.smsc95xx_eth_ops
                0x000000000005a73c       0x20 drivers/usb/eth/built-in.o
 .rodata.uimage_arch
                0x000000000005a75c      0x144 common/built-in.o
 .rodata.uimage_comp
                0x000000000005a8a0       0x54 common/built-in.o
 .rodata.uimage_os
                0x000000000005a8f4       0xa8 common/built-in.o
 .rodata.uimage_type
                0x000000000005a99c      0x1e0 common/built-in.o
 .rodata.usb_hub_ids
                0x000000000005ab7c       0x10 common/built-in.o
 .rodata.usb_kbd_ids
                0x000000000005ab8c       0x10 common/built-in.o
 .rodata.usb_mass_storage_ids
                0x000000000005ab9c       0x10 common/built-in.o
 .rodata.usb_storage_ops
                0x000000000005abac       0x10 common/built-in.o
 .rodata.codepage
                0x000000000005abbc      0x100 lib/built-in.o
 .rodata.crc16_tab
                0x000000000005acbc      0x200 lib/built-in.o
 .rodata.dbase.8769
                0x000000000005aebc       0x40 lib/built-in.o
 .rodata.dext.8770
                0x000000000005aefc       0x40 lib/built-in.o
 .rodata.distfix
                0x000000000005af3c       0x80 lib/built-in.o
 .rodata.efi_bootmgr_load.str2.2
                0x000000000005afbc       0x26 lib/built-in.o
 .rodata.efi_init_obj_list.str2.2
                0x000000000005afe2       0x6c lib/built-in.o
 .rodata.efi_set_variable_common.str2.2
                0x000000000005b04e       0x32 lib/built-in.o
 .rodata.efi_transfer_secure_state.str2.2
                0x000000000005b080       0x58 lib/built-in.o
 .rodata.lbase.8767
                0x000000000005b0d8       0x3e lib/built-in.o
 .rodata.lenfix
                0x000000000005b116      0x800 lib/built-in.o
 .rodata.lext.8768
                0x000000000005b916       0x3e lib/built-in.o
 .rodata.order.8863
                0x000000000005b954       0x26 lib/built-in.o
 .rodata.string16.str2.2
                0x000000000005b97a        0xe lib/built-in.o
 .rodata.try_load_entry.str2.2
                0x000000000005b988       0x4c lib/built-in.o
 .rodata        0x000000000005b9d4        0x3 env/built-in.o
 .rodata        0x000000000005b9d7       0x23 lib/built-in.o
 .rodata        0x000000000005b9fa        0x7 net/built-in.o
 .rodata.CSWTCH.66
                0x000000000005ba01       0x16 common/built-in.o
 .rodata.END    0x000000000005ba17        0x4 lib/built-in.o
 .rodata.ROOT   0x000000000005ba1b       0x14 lib/built-in.o
 .rodata.__FUNCTION__.9049
                0x000000000005ba2f       0x17 common/built-in.o
 .rodata.__FUNCTION__.9222
                0x000000000005ba46       0x17 common/built-in.o
 .rodata.__func__.10083
                0x000000000005ba5d       0x12 drivers/net/phy/built-in.o
 .rodata.__func__.10124
                0x000000000005ba6f        0xc drivers/built-in.o
 .rodata.__func__.10162
                0x000000000005ba7b       0x14 drivers/built-in.o
 .rodata.__func__.10185
                0x000000000005ba8f       0x13 drivers/built-in.o
 .rodata.__func__.10199
                0x000000000005baa2       0x10 drivers/built-in.o
 .rodata.__func__.10200
                0x000000000005bab2        0xf common/built-in.o
 .rodata.__func__.10250
                0x000000000005bac1        0xb drivers/built-in.o
 .rodata.__func__.10278
                0x000000000005bacc       0x10 drivers/built-in.o
 .rodata.__func__.10363
                0x000000000005badc       0x15 common/built-in.o
 .rodata.__func__.10448
                0x000000000005baf1        0xd drivers/built-in.o
 .rodata.__func__.10454
                0x000000000005bafe       0x11 drivers/built-in.o
 .rodata.__func__.10458
                0x000000000005bb0f       0x18 drivers/built-in.o
 .rodata.__func__.10462
                0x000000000005bb27       0x18 drivers/built-in.o
 .rodata.__func__.10466
                0x000000000005bb3f        0xd drivers/built-in.o
 .rodata.__func__.10470
                0x000000000005bb4c       0x14 drivers/built-in.o
 .rodata.__func__.10474
                0x000000000005bb60       0x14 drivers/built-in.o
 .rodata.__func__.10621
                0x000000000005bb74       0x15 drivers/built-in.o
 .rodata.__func__.10647
                0x000000000005bb89       0x18 drivers/built-in.o
 .rodata.__func__.10648
                0x000000000005bba1        0xf lib/built-in.o
 .rodata.__func__.10650
                0x000000000005bbb0        0xa arch/arm/mach-bcm283x/built-in.o
 .rodata.__func__.10656
                0x000000000005bbba       0x15 drivers/built-in.o
 .rodata.__func__.10665
                0x000000000005bbcf        0xe lib/built-in.o
 .rodata.__func__.10667
                0x000000000005bbdd       0x16 arch/arm/mach-bcm283x/built-in.o
 .rodata.__func__.10695
                0x000000000005bbf3       0x19 drivers/built-in.o
 .rodata.__func__.10828
                0x000000000005bc0c       0x1b lib/built-in.o
 .rodata.__func__.10852
                0x000000000005bc27        0xc lib/built-in.o
 .rodata.__func__.10996
                0x000000000005bc33        0xe common/built-in.o
 .rodata.__func__.11342
                0x000000000005bc41        0xc lib/built-in.o
 .rodata.__func__.11682
                0x000000000005bc4d       0x15 lib/built-in.o
 .rodata.__func__.8444
                0x000000000005bc62        0xb fs/built-in.o
 .rodata.__func__.8648
                0x000000000005bc6d       0x12 disk/built-in.o
 .rodata.__func__.8789
                0x000000000005bc7f        0xd disk/built-in.o
 .rodata.__func__.8799
                0x000000000005bc8c        0xf disk/built-in.o
 .rodata.__func__.8808
                0x000000000005bc9b       0x17 disk/built-in.o
 .rodata.__func__.8813
                0x000000000005bcb2        0xd disk/built-in.o
 .rodata.__func__.8844
                0x000000000005bcbf       0x16 arch/arm/mach-bcm283x/built-in.o
 .rodata.__func__.8925
                0x000000000005bcd5       0x18 common/built-in.o
 .rodata.__func__.9168
                0x000000000005bced        0xe drivers/built-in.o
 .rodata.__func__.9386
                0x000000000005bcfb       0x13 lib/built-in.o
 .rodata.__of_translate_address.str1.1
                0x000000000005bd0e       0x1b common/built-in.o
 .rodata._ctype
                0x000000000005bd29      0x100 lib/built-in.o
                0x000000000005bd29                _ctype
 .rodata._do_env_set.isra.0.str1.1
                0x000000000005be29       0x7c cmd/built-in.o
 .rodata._do_help.str1.1
                0x000000000005bea5       0x5f common/built-in.o
 .rodata._gpio_request_by_name_nodev.str1.1
                0x000000000005bf04        0xc drivers/gpio/built-in.o
 .rodata._submit_int_msg.str1.1
                0x000000000005bf10       0x24 drivers/usb/host/built-in.o
 .rodata.alloc_simple.str1.1
                0x000000000005bf34       0x17 common/built-in.o
 .rodata.announce_dram_init.str1.1
                0x000000000005bf4b        0x8 common/built-in.o
 .rodata.arp_receive.str1.1
                0x000000000005bf53       0x14 net/built-in.o
 .rodata.arp_request.str1.1
                0x000000000005bf67       0x2a net/built-in.o
 .rodata.arp_timeout_check.str1.1
                0x000000000005bf91       0x2b net/built-in.o
 .rodata.autoboot_command.str1.1
                0x000000000005bfbc       0x31 common/built-in.o
 .rodata.b_addqchr.str1.1
                0x000000000005bfed        0x5 common/built-in.o
 .rodata.bad_mode.str1.1
                0x000000000005bff2       0x13 arch/arm/lib/built-in.o
 .rodata.bcm2835_finish_command.str1.1
                0x000000000005c005       0x1d drivers/built-in.o
                                         0x37 (size before relaxing)
 .rodata.bcm2835_get_mmc_clock.str1.1
                0x000000000005c022       0x2a arch/arm/mach-bcm283x/built-in.o
 .rodata.bcm2835_get_video_size.str1.1
                0x000000000005c04c       0x2d arch/arm/mach-bcm283x/built-in.o
 .rodata.bcm2835_gpio_probe.str1.1
                0x000000000005c079        0x5 drivers/gpio/built-in.o
 .rodata.bcm2835_mbox_call_prop.str1.1
                0x000000000005c07e       0x6f arch/arm/mach-bcm283x/built-in.o
 .rodata.bcm2835_mbox_call_raw.str1.1
                0x000000000005c0ed       0xd0 arch/arm/mach-bcm283x/built-in.o
                                         0xe9 (size before relaxing)
 .rodata.bcm2835_power_on_module.str1.1
                0x000000000005c1bd       0x2e arch/arm/mach-bcm283x/built-in.o
 .rodata.bcm2835_read_wait_sdcmd.isra.0.str1.1
                0x000000000005c1eb       0x15 drivers/built-in.o
 .rodata.bcm2835_send_cmd.str1.1
                0x000000000005c200      0x174 drivers/built-in.o
                                        0x17f (size before relaxing)
 .rodata.bcm2835_set_video_params.str1.1
                0x000000000005c374       0x26 arch/arm/mach-bcm283x/built-in.o
 .rodata.bcm283x_mu_serial_ofdata_to_platdata.str1.1
                0x000000000005c39a        0x6 drivers/serial/built-in.o
 .rodata.bcm283x_pinctl_probe.str1.1
                0x000000000005c39a       0x29 drivers/built-in.o
 .rodata.bcm283x_pinctrl_set_state.str1.1
                0x000000000005c3c3       0x18 drivers/built-in.o
 .rodata.binary_test.str1.1
                0x000000000005c3db       0x17 cmd/built-in.o
 .rodata.blk_common_cmd.str1.1
                0x000000000005c3f2      0x10c cmd/built-in.o
                                        0x123 (size before relaxing)
 .rodata.blk_create_devicef.str1.1
                0x000000000005c4fe        0x6 drivers/built-in.o
 .rodata.blk_get_device_by_str.str1.1
                0x000000000005c504       0x52 disk/built-in.o
 .rodata.blk_get_device_part_str.str1.1
                0x000000000005c556      0x107 disk/built-in.o
                                        0x109 (size before relaxing)
 .rodata.blk_list_devices.str1.1
                0x000000000005c65d       0x29 drivers/built-in.o
                                          0xc (size before relaxing)
 .rodata.blk_print_device_num.str1.1
                0x000000000005c65d       0x11 drivers/built-in.o
 .rodata.blk_show_device.str1.1
                0x000000000005c66e       0x1d drivers/built-in.o
 .rodata.blkc_configure.str1.1
                0x000000000005c68b       0x30 cmd/built-in.o
 .rodata.blkc_show.str1.1
                0x000000000005c6bb       0x4c cmd/built-in.o
 .rodata.board_init.str1.1
                0x000000000005c707       0x7e board/raspberrypi/rpi/built-in.o
 .rodata.board_init_f.str1.1
                0x000000000005c785       0x31 common/built-in.o
 .rodata.board_init_r.str1.1
                0x000000000005c7b6       0x31 common/built-in.o
 .rodata.boot_fdt_add_mem_rsv_regions.str1.1
                0x000000000005c7b6       0x42 common/built-in.o
                                         0x56 (size before relaxing)
 .rodata.boot_get_fdt.str1.1
                0x000000000005c7f8      0x1b5 common/built-in.o
                                        0x1d0 (size before relaxing)
 .rodata.boot_get_ramdisk.str1.1
                0x000000000005c9ad       0xb7 common/built-in.o
                                        0x10d (size before relaxing)
 .rodata.boot_jump_linux.str1.1
                0x000000000005ca64       0x5c arch/arm/lib/built-in.o
                                         0x5d (size before relaxing)
 .rodata.boot_prep_linux.str1.1
                0x000000000005cac0       0x20 arch/arm/lib/built-in.o
                                         0x29 (size before relaxing)
 .rodata.boot_prep_vxworks.str1.1
                0x000000000005cae0       0x2a arch/arm/lib/built-in.o
 .rodata.boot_ramdisk_high.str1.1
                0x000000000005cb0a       0x54 common/built-in.o
 .rodata.boot_relocate_fdt.str1.1
                0x000000000005cb5e       0xcf common/built-in.o
                                         0xd3 (size before relaxing)
 .rodata.bootdelay_process.str1.1
                0x000000000005cc2d       0x3a common/built-in.o
                                         0x42 (size before relaxing)
 .rodata.bootm_find_images.str1.1
                0x000000000005cc67       0x49 common/built-in.o
 .rodata.bootm_maybe_autostart.str1.1
                0x000000000005ccb0       0x3b cmd/built-in.o
 .rodata.bootp_request.str1.1
                0x000000000005cceb       0x25 net/built-in.o
 .rodata.bootp_timeout_handler.str1.1
                0x000000000005cd10       0x26 net/built-in.o
 .rodata.bootz_setup.str1.1
                0x000000000005cd36       0x3f arch/arm/lib/built-in.o
 .rodata.check_cache_range.str1.1
                0x000000000005cd75       0x35 arch/arm/lib/built-in.o
 .rodata.check_reserved.str1.1
                0x000000000005cdaa       0x27 drivers/gpio/built-in.o
                                         0x28 (size before relaxing)
 .rodata.cli_process_fdt.str1.1
                0x000000000005cdd1        0xb common/built-in.o
                                         0x13 (size before relaxing)
 .rodata.cli_readline_into_buffer.str1.1
                0x000000000005cddc        0x7 common/built-in.o
                                          0x8 (size before relaxing)
 .rodata.cli_secure_boot_cmd.str1.1
                0x000000000005cde3       0x50 common/built-in.o
 .rodata.cmd_auto_complete.str1.1
                0x000000000005ce33       0x5f common/built-in.o
                                         0x10 (size before relaxing)
 .rodata.cmd_process.str1.1
                0x000000000005ce33       0x46 common/built-in.o
                                         0x48 (size before relaxing)
 .rodata.cmd_process_error.str1.1
                0x000000000005ce79       0x1f common/built-in.o
 .rodata.cmd_usage.str1.1
                0x000000000005ce98       0x36 common/built-in.o
 .rodata.common_diskboot.str1.1
                0x000000000005cece       0x8f cmd/built-in.o
 .rodata.compat.9611
                0x000000000005cf5d       0x13 common/built-in.o
 .rodata.compile.str1.1
                0x000000000005cf70       0x4a lib/built-in.o
 .rodata.complete_subcmdv.str1.1
                0x000000000005cfba       0x5f common/built-in.o
                                          0x4 (size before relaxing)
 .rodata.console_announce_r.str1.1
                0x000000000005cfba        0x7 common/built-in.o
 .rodata.cread_add_char.str1.1
                0x000000000005cfba        0x5 common/built-in.o
 .rodata.default_environment
                0x000000000005cfbf      0xfec env/built-in.o
                0x000000000005cfbf                default_environment
 .rodata.dev_get_platdata.str1.1
                0x000000000005dfab       0x11 drivers/built-in.o
 .rodata.dev_print.str1.1
                0x000000000005dfbc      0x165 disk/built-in.o
                                        0x176 (size before relaxing)
 .rodata.devfdt_get_addr_index.str1.1
                0x000000000005e121        0x4 drivers/built-in.o
 .rodata.device_bind_common.isra.0.str1.1
                0x000000000005e121       0x5b drivers/built-in.o
 .rodata.device_chld_unbind.str1.1
                0x000000000005e17c       0x1e drivers/built-in.o
 .rodata.device_probe.str1.1
                0x000000000005e19a       0x30 drivers/built-in.o
                                         0x38 (size before relaxing)
 .rodata.device_remove.str1.1
                0x000000000005e1ca       0x98 drivers/built-in.o
 .rodata.dhcp_extended.str1.1
                0x000000000005e262       0x37 net/built-in.o
                                         0x3f (size before relaxing)
 .rodata.dhcp_handler.str1.1
                0x000000000005e299       0x41 net/built-in.o
                                         0x4a (size before relaxing)
 .rodata.dhcp_process_options.str1.1
                0x000000000005e2da       0x78 net/built-in.o
 .rodata.digits.10765
                0x000000000005e352       0x10 lib/built-in.o
 .rodata.disabled.9612
                0x000000000005e362        0x9 common/built-in.o
 .rodata.disk_write.str1.1
                0x000000000005e36b       0x18 fs/built-in.o
 .rodata.display_options.str1.1
                0x000000000005e383        0x3 lib/built-in.o
 .rodata.display_options_get_banner_priv.str1.1
                0x000000000005e383        0xc lib/built-in.o
                                         0x15 (size before relaxing)
 .rodata.dm_dump_all.str1.1
                0x000000000005e38f       0x73 drivers/built-in.o
 .rodata.dm_dump_drivers.str1.1
                0x000000000005e402       0x39 drivers/built-in.o
                                         0x61 (size before relaxing)
 .rodata.dm_dump_uclass.str1.1
                0x000000000005e43b       0x35 drivers/built-in.o
                                         0x37 (size before relaxing)
 .rodata.dm_gpio_get_value.str1.1
                0x000000000005e470        0xa drivers/gpio/built-in.o
 .rodata.dm_gpio_set_dir_flags.str1.1
                0x000000000005e47a        0xe drivers/gpio/built-in.o
 .rodata.dm_gpio_set_value.str1.1
                0x000000000005e488        0xa drivers/gpio/built-in.o
 .rodata.dm_init.str1.1
                0x000000000005e492       0x25 drivers/built-in.o
 .rodata.dm_root.str1.1
                0x000000000005e4b7       0x25 drivers/built-in.o
 .rodata.dm_scan_fdt_node.str1.1
                0x000000000005e4dc       0x1d drivers/built-in.o
 .rodata.dm_scan_platdata.str1.1
                0x000000000005e4f9       0x1d drivers/built-in.o
 .rodata.do_bdinfo.str1.1
                0x000000000005e516       0xa8 cmd/built-in.o
 .rodata.do_bootd.str1.1
                0x000000000005e5be        0x8 cmd/built-in.o
 .rodata.do_bootefi.str1.1
                0x000000000005e5c6       0x6d cmd/built-in.o
 .rodata.do_bootefi_exec.str1.1
                0x000000000005e633       0x42 cmd/built-in.o
                                         0x4b (size before relaxing)
 .rodata.do_bootelf.str1.1
                0x000000000005e675       0x52 cmd/built-in.o
                                         0x5c (size before relaxing)
 .rodata.do_bootm.str1.1
                0x000000000005e6c7       0x2a cmd/built-in.o
 .rodata.do_bootm_netbsd.str1.1
                0x000000000005e6f1       0x49 common/built-in.o
                                         0x4a (size before relaxing)
 .rodata.do_bootm_plan9.str1.1
                0x000000000005e73a       0x43 common/built-in.o
 .rodata.do_bootm_qnxelf.str1.1
                0x000000000005e77d        0x4 common/built-in.o
 .rodata.do_bootm_rtems.str1.1
                0x000000000005e77d       0x39 common/built-in.o
 .rodata.do_bootm_standalone.str1.1
                0x000000000005e7b6       0x16 common/built-in.o
 .rodata.do_bootm_states.str1.1
                0x000000000005e7b6      0x24c common/built-in.o
                                        0x2c8 (size before relaxing)
 .rodata.do_bootm_vxworks.str1.1
                0x000000000005ea02       0x93 common/built-in.o
                                         0xba (size before relaxing)
 .rodata.do_bootvx.str1.1
                0x000000000005ea95      0x1c5 cmd/built-in.o
                                        0x1d0 (size before relaxing)
 .rodata.do_coninfo.str1.1
                0x000000000005ec5a       0x2c cmd/built-in.o
                                         0x30 (size before relaxing)
 .rodata.do_data_abort.str1.1
                0x000000000005ec86        0xc arch/arm/lib/built-in.o
 .rodata.do_dev.str1.1
                0x000000000005ec92       0x4f cmd/built-in.o
 .rodata.do_echo.str1.1
                0x000000000005ece1        0x3 cmd/built-in.o
 .rodata.do_env_default.str1.1
                0x000000000005ece4       0x25 cmd/built-in.o
 .rodata.do_env_edit.part.0.str1.1
                0x000000000005ed09        0x7 cmd/built-in.o
                                          0xa (size before relaxing)
 .rodata.do_env_export.str1.1
                0x000000000005ed10       0x6b cmd/built-in.o
                                         0x74 (size before relaxing)
 .rodata.do_env_import.str1.1
                0x000000000005ed7b      0x139 cmd/built-in.o
                                        0x13b (size before relaxing)
 .rodata.do_env_print.str1.1
                0x000000000005eeb4       0x3d cmd/built-in.o
 .rodata.do_fat_fsinfo.str1.1
                0x000000000005eef1       0x56 cmd/built-in.o
 .rodata.do_fat_fswrite.str1.1
                0x000000000005ef47       0x6b cmd/built-in.o
 .rodata.do_fdt.str1.1
                0x000000000005efb2      0x48e cmd/built-in.o
                                        0x4f0 (size before relaxing)
 .rodata.do_fiq.str1.1
                0x000000000005f440       0x18 arch/arm/lib/built-in.o
 .rodata.do_fixup_by_path.str1.1
                0x000000000005f458       0x29 common/built-in.o
 .rodata.do_fs_uuid.str1.1
                0x000000000005f481        0x4 fs/built-in.o
 .rodata.do_get_any.str1.1
                0x000000000005f481        0x5 cmd/built-in.o
 .rodata.do_get_ext2.str1.1
                0x000000000005f481        0x9 cmd/built-in.o
 .rodata.do_get_fat.str1.1
                0x000000000005f481        0x8 cmd/built-in.o
 .rodata.do_get_tftp.str1.1
                0x000000000005f481        0x5 cmd/built-in.o
 .rodata.do_go.str1.1
                0x000000000005f481       0x4f cmd/built-in.o
 .rodata.do_gpio.str1.1
                0x000000000005f4d0       0xc4 cmd/built-in.o
                                         0xd2 (size before relaxing)
 .rodata.do_imgextract.str1.1
                0x000000000005f594      0x148 cmd/built-in.o
                                        0x1ac (size before relaxing)
 .rodata.do_irq.str1.1
                0x000000000005f6dc       0x18 arch/arm/lib/built-in.o
                                         0x13 (size before relaxing)
 .rodata.do_itest.str1.1
                0x000000000005f6dc       0x1e cmd/built-in.o
 .rodata.do_list.str1.1
                0x000000000005f6fa       0x24 cmd/built-in.o
                                         0x2b (size before relaxing)
 .rodata.do_load.str1.1
                0x000000000005f71e       0x6d fs/built-in.o
                                         0x90 (size before relaxing)
 .rodata.do_load_serial.str1.1
                0x000000000005f78b       0x6b cmd/built-in.o
 .rodata.do_load_serial_bin.str1.1
                0x000000000005f7f6      0x159 cmd/built-in.o
 .rodata.do_ls.str1.1
                0x000000000005f94f        0x2 fs/built-in.o
 .rodata.do_mdio.str1.1
                0x000000000005f94f       0x78 cmd/built-in.o
 .rodata.do_mem_base.str1.1
                0x000000000005f9c7       0x17 cmd/built-in.o
 .rodata.do_mem_cmp.str1.1
                0x000000000005f9de       0x6e cmd/built-in.o
                                         0x73 (size before relaxing)
 .rodata.do_mem_cp.str1.1
                0x000000000005fa4c       0x11 cmd/built-in.o
 .rodata.do_mem_crc.str1.1
                0x000000000005fa5d        0x6 cmd/built-in.o
 .rodata.do_mii.str1.1
                0x000000000005fa63      0x22e cmd/built-in.o
                                        0x24a (size before relaxing)
 .rodata.do_mkdir.str1.1
                0x000000000005fc91       0x29 fs/built-in.o
 .rodata.do_mmc_boot_wp.str1.1
                0x000000000005fcba       0x30 cmd/built-in.o
 .rodata.do_mmc_dev.str1.1
                0x000000000005fcea       0x80 cmd/built-in.o
                                         0x89 (size before relaxing)
 .rodata.do_mmc_erase.str1.1
                0x000000000005fd6a       0x67 cmd/built-in.o
 .rodata.do_mmc_hwpartition.str1.1
                0x000000000005fdd1      0x126 cmd/built-in.o
                                        0x142 (size before relaxing)
 .rodata.do_mmc_part.str1.1
                0x000000000005fef7       0x15 cmd/built-in.o
 .rodata.do_mmc_read.str1.1
                0x000000000005ff0c       0x43 cmd/built-in.o
 .rodata.do_mmc_setdsr.str1.1
                0x000000000005ff4f       0x1d cmd/built-in.o
 .rodata.do_mmc_write.str1.1
                0x000000000005ff6c       0x47 cmd/built-in.o
 .rodata.do_mmcops.str1.1
                0x000000000005ffb3       0x19 cmd/built-in.o
 .rodata.do_not_used.str1.1
                0x000000000005ffcc        0xa arch/arm/lib/built-in.o
 .rodata.do_part.str1.1
                0x000000000005ffd6        0x9 cmd/built-in.o
                                         0x1c (size before relaxing)
 .rodata.do_part_info.str1.1
                0x000000000005ffd6        0x9 cmd/built-in.o
                                          0xd (size before relaxing)
 .rodata.do_part_list.str1.1
                0x000000000005ffdf       0x22 cmd/built-in.o
                                         0x25 (size before relaxing)
 .rodata.do_ping.str1.1
                0x0000000000060001       0x35 cmd/built-in.o
 .rodata.do_prefetch_abort.str1.1
                0x0000000000060036       0x10 arch/arm/lib/built-in.o
 .rodata.do_pxe_boot.str1.1
                0x0000000000060046       0x47 cmd/built-in.o
                                         0x48 (size before relaxing)
 .rodata.do_pxe_get.str1.1
                0x000000000006008d       0x32 cmd/built-in.o
                                         0x37 (size before relaxing)
 .rodata.do_reset.str1.1
                0x00000000000600bf        0xf arch/arm/lib/built-in.o
 .rodata.do_run.str1.1
                0x00000000000600ce       0x1c common/built-in.o
 .rodata.do_save.str1.1
                0x00000000000600ce       0x1d fs/built-in.o
 .rodata.do_setexpr.str1.1
                0x00000000000600eb       0x11 cmd/built-in.o
                                         0x15 (size before relaxing)
 .rodata.do_showvar.str1.1
                0x00000000000600fc        0xc common/built-in.o
                                         0x2f (size before relaxing)
 .rodata.do_size.str1.1
                0x0000000000060108        0x9 fs/built-in.o
 .rodata.do_software_interrupt.str1.1
                0x0000000000060108       0x14 arch/arm/lib/built-in.o
 .rodata.do_source.str1.1
                0x000000000006011c       0x1e cmd/built-in.o
 .rodata.do_status.str1.1
                0x000000000006013a       0x21 cmd/built-in.o
                                         0x45 (size before relaxing)
 .rodata.do_sysboot.str1.1
                0x000000000006015b       0x43 cmd/built-in.o
                                         0x93 (size before relaxing)
 .rodata.do_undefined_instruction.str1.1
                0x000000000006019e       0x17 arch/arm/lib/built-in.o
 .rodata.do_usb.str1.1
                0x00000000000601b5      0x279 cmd/built-in.o
                                        0x293 (size before relaxing)
 .rodata.do_usbboot.str1.1
                0x000000000006042e      0x10d cmd/built-in.o
                                          0x4 (size before relaxing)
 .rodata.do_version.str1.1
                0x000000000006042e       0x77 cmd/built-in.o
 .rodata.dp_unknown.str1.1
                0x00000000000604a5       0x13 lib/built-in.o
 .rodata.dram_init.str1.1
                0x00000000000604b8       0x2a board/raspberrypi/rpi/built-in.o
 .rodata.dump_field.str1.1
                0x00000000000604e2       0x1b cmd/built-in.o
 .rodata.dwc2_submit_control_msg.str1.1
                0x00000000000604fd       0x44 drivers/usb/host/built-in.o
 .rodata.dwc2_usb_ofdata_to_platdata.str1.1
                0x0000000000060541       0x25 drivers/usb/host/built-in.o
 .rodata.dwc2_usb_probe.str1.1
                0x0000000000060566        0xa drivers/usb/host/built-in.o
 .rodata.efi_bl_bind.str1.1
                0x0000000000060570       0x12 lib/built-in.o
 .rodata.efi_bootmgr_load.str1.1
                0x0000000000060582       0x8b lib/built-in.o
 .rodata.efi_console_register.str1.1
                0x000000000006060d       0x90 lib/built-in.o
                                         0xb8 (size before relaxing)
 .rodata.efi_convert_single_device_node_to_text.str1.1
                0x000000000006069d      0x122 lib/built-in.o
                                        0x13b (size before relaxing)
 .rodata.efi_cout_clear_screen.str1.1
                0x00000000000607bf        0xb lib/built-in.o
 .rodata.efi_cout_enable_cursor.str1.1
                0x00000000000607ca        0x8 lib/built-in.o
 .rodata.efi_cout_set_attribute.str1.1
                0x00000000000607d2       0x17 lib/built-in.o
 .rodata.efi_cout_set_cursor_position.str1.1
                0x00000000000607e9        0x9 lib/built-in.o
 .rodata.efi_disk_create_partitions.str1.1
                0x00000000000607f2       0x22 lib/built-in.o
 .rodata.efi_disk_register.str1.1
                0x0000000000060814       0x67 lib/built-in.o
 .rodata.efi_dp_from_name.str1.1
                0x000000000006087b        0x4 lib/built-in.o
                                          0x7 (size before relaxing)
 .rodata.efi_driver_init.str1.1
                0x000000000006087f       0x58 lib/built-in.o
 .rodata.efi_exit.str1.1
                0x00000000000608d7       0x17 lib/built-in.o
 .rodata.efi_file_from_path.str1.1
                0x00000000000608ee       0x10 lib/built-in.o
 .rodata.efi_free_pages.str1.1
                0x00000000000608fe       0x20 lib/built-in.o
 .rodata.efi_free_pool.str1.1
                0x000000000006091e       0x17 lib/built-in.o
 .rodata.efi_get_next_variable_name.str1.1
                0x0000000000060935       0x16 lib/built-in.o
 .rodata.efi_get_variable_common.isra.0.str1.1
                0x000000000006094b        0x7 lib/built-in.o
                                          0xe (size before relaxing)
 .rodata.efi_gop_register.str1.1
                0x0000000000060952       0x24 lib/built-in.o
                                         0x3a (size before relaxing)
 .rodata.efi_init_obj_list.str1.1
                0x0000000000060976       0x39 lib/built-in.o
 .rodata.efi_install_fdt.str1.1
                0x00000000000609af      0x10f cmd/built-in.o
                                        0x118 (size before relaxing)
 .rodata.efi_load_pe.str1.1
                0x0000000000060abe      0x130 lib/built-in.o
 .rodata.efi_net_register.str1.1
                0x0000000000060bee       0x6d lib/built-in.o
                                         0x83 (size before relaxing)
 .rodata.efi_print_image_infos.str1.1
                0x0000000000060c5b       0x29 lib/built-in.o
                                         0x2b (size before relaxing)
 .rodata.efi_reserve_memory.str1.1
                0x0000000000060c84       0x34 cmd/built-in.o
 .rodata.efi_set_code_and_data_type.str1.1
                0x0000000000060cb8       0x1c lib/built-in.o
 .rodata.efi_set_variable_common.str1.1
                0x0000000000060cd4       0x2d lib/built-in.o
                                         0x33 (size before relaxing)
 .rodata.efi_setup_loaded_image.str1.1
                0x0000000000060d01       0x36 lib/built-in.o
 .rodata.efi_to_native.str1.1
                0x0000000000060d37       0x34 lib/built-in.o
 .rodata.efi_transfer_secure_state.str1.1
                0x0000000000060d6b       0x27 lib/built-in.o
 .rodata.efi_uc_destroy.str1.1
                0x0000000000060d92       0x18 lib/built-in.o
 .rodata.efi_uc_init.str1.1
                0x0000000000060daa       0x1e lib/built-in.o
 .rodata.efi_uc_stop.str1.1
                0x0000000000060dc8       0x1d lib/built-in.o
 .rodata.efi_watchdog_register.str1.1
                0x0000000000060de5       0x4f lib/built-in.o
 .rodata.efi_watchdog_timer_notify.str1.1
                0x0000000000060e34       0x18 lib/built-in.o
 .rodata.emit.str1.1
                0x0000000000060e4c       0x1f lib/built-in.o
 .rodata.env_callback_init.str1.1
                0x0000000000060e6b        0xb env/built-in.o
 .rodata.env_complete.str1.1
                0x0000000000060e76        0xa env/built-in.o
                                         0x10 (size before relaxing)
 .rodata.env_export.str1.1
                0x0000000000060e80       0x3d env/built-in.o
                                         0x27 (size before relaxing)
 .rodata.env_fat_load.str1.1
                0x0000000000060e80       0x25 env/built-in.o
 .rodata.env_fat_save.str1.1
                0x0000000000060ea5       0x4f env/built-in.o
                                         0x53 (size before relaxing)
 .rodata.env_flags_init.str1.1
                0x0000000000060ef4        0x7 env/built-in.o
 .rodata.env_flags_parse_varaccess.str1.1
                0x0000000000060efb       0x3d env/built-in.o
 .rodata.env_flags_parse_vartype.str1.1
                0x0000000000060f38       0x34 env/built-in.o
 .rodata.env_flags_validate.str1.1
                0x0000000000060f6c       0xb2 env/built-in.o
                                         0xb3 (size before relaxing)
 .rodata.env_flags_varaccess_rep
                0x000000000006101e        0x5 env/built-in.o
 .rodata.env_flags_vartype_rep
                0x0000000000061023        0x7 env/built-in.o
 .rodata.env_get_bootm_low.str1.1
                0x000000000006102a        0xa common/built-in.o
 .rodata.env_get_bootm_mapsize.str1.1
                0x0000000000061034        0xe common/built-in.o
 .rodata.env_get_bootm_size.str1.1
                0x0000000000061042        0xb common/built-in.o
 .rodata.env_get_f.str1.1
                0x000000000006104d       0x30 cmd/built-in.o
 .rodata.env_import.str1.1
                0x000000000006107d       0x3d env/built-in.o
 .rodata.env_load.str1.1
                0x00000000000610ba       0x20 env/built-in.o
                                         0x24 (size before relaxing)
 .rodata.env_print.str1.1
                0x00000000000610da       0x25 cmd/built-in.o
                                         0x2c (size before relaxing)
 .rodata.env_save.str1.1
                0x00000000000610ff       0x2a env/built-in.o
 .rodata.env_set.str1.1
                0x0000000000061129        0x7 cmd/built-in.o
 .rodata.env_set_default.str1.1
                0x0000000000061130       0x2e env/built-in.o
                                         0x5f (size before relaxing)
 .rodata.env_set_hex.str1.1
                0x000000000006115e        0x4 cmd/built-in.o
 .rodata.erase_seq
                0x000000000006115e        0x4 common/built-in.o
 .rodata.eth_current_changed.str1.1
                0x0000000000061162       0x14 net/built-in.o
 .rodata.eth_env_get_enetaddr_by_index.str1.1
                0x0000000000061162       0x10 net/built-in.o
 .rodata.eth_env_set_enetaddr.str1.1
                0x0000000000061172        0x4 cmd/built-in.o
 .rodata.eth_get_name.str1.1
                0x0000000000061176        0x8 net/built-in.o
 .rodata.eth_init.str1.1
                0x0000000000061176       0x11 net/built-in.o
                                         0x28 (size before relaxing)
 .rodata.eth_initialize.str1.1
                0x0000000000061187       0x1c net/built-in.o
                                         0x1f (size before relaxing)
 .rodata.eth_mac_skip.str1.1
                0x00000000000611a3       0x18 net/built-in.o
 .rodata.eth_post_bind.str1.1
                0x00000000000611bb       0x2b net/built-in.o
 .rodata.eth_post_probe.str1.1
                0x00000000000611e6       0xa7 net/built-in.o
                                         0xcd (size before relaxing)
 .rodata.eth_set_current.str1.1
                0x000000000006128d        0x9 net/built-in.o
 .rodata.eth_write_hwaddr.str1.1
                0x000000000006128d       0x4e net/built-in.o
 .rodata.ext4_read_file.str1.1
                0x00000000000612db       0x19 fs/built-in.o
 .rodata.ext4fs_iterate_dir.str1.1
                0x00000000000612f4       0x43 fs/built-in.o
                                         0x4a (size before relaxing)
 .rodata.ext4fs_ls.str1.1
                0x0000000000061337       0x1f fs/built-in.o
 .rodata.ext4fs_mount.str1.1
                0x0000000000061356       0x24 fs/built-in.o
 .rodata.fat_itr_resolve.str1.1
                0x000000000006137a        0xa fs/built-in.o
                                          0x5 (size before relaxing)
 .rodata.fat_itr_root.str1.1
                0x000000000006137a       0x85 fs/built-in.o
 .rodata.fat_mkdir.str1.1
                0x00000000000613ff       0x26 fs/built-in.o
                                         0x2a (size before relaxing)
 .rodata.fat_read_file.str1.1
                0x0000000000061425       0x1e fs/built-in.o
 .rodata.fat_set_blk_dev.str1.1
                0x0000000000061443        0x3 fs/built-in.o
                                          0xd (size before relaxing)
 .rodata.fat_unlink.str1.1
                0x0000000000061446       0x8b fs/built-in.o
                                         0x8c (size before relaxing)
 .rodata.fdt_address_cells.str1.1
                0x00000000000614d1        0xf lib/built-in.o
 .rodata.fdt_chosen.str1.1
                0x00000000000614d1       0x35 common/built-in.o
                                         0x3e (size before relaxing)
 .rodata.fdt_error.str1.1
                0x0000000000061506       0x2d common/built-in.o
 .rodata.fdt_find_or_add_subnode.str1.1
                0x0000000000061533        0xc common/built-in.o
 .rodata.fdt_fixup_ethernet.str1.1
                0x000000000006153f       0x2e common/built-in.o
                                         0x42 (size before relaxing)
 .rodata.fdt_fixup_memory_banks.str1.1
                0x000000000006156d       0x81 common/built-in.o
                                         0x94 (size before relaxing)
 .rodata.fdt_get_alias_namelen.str1.1
                0x00000000000615ee        0x9 lib/built-in.o
 .rodata.fdt_get_phandle.str1.1
                0x00000000000615ee        0xe lib/built-in.o
                                         0x16 (size before relaxing)
 .rodata.fdt_initrd.str1.1
                0x00000000000615fc       0x90 common/built-in.o
                                         0x97 (size before relaxing)
 .rodata.fdt_overlay_apply.str1.1
                0x000000000006168c       0x39 lib/built-in.o
                                         0x5f (size before relaxing)
 .rodata.fdt_overlay_apply_verbose.str1.1
                0x00000000000616c5       0x83 common/built-in.o
 .rodata.fdt_read_range.str1.1
                0x0000000000061748        0xf common/built-in.o
 .rodata.fdt_root.str1.1
                0x0000000000061757       0x46 common/built-in.o
                                         0x4e (size before relaxing)
 .rodata.fdt_set_node_status.str1.1
                0x000000000006179d       0x33 common/built-in.o
                                         0x3a (size before relaxing)
 .rodata.fdt_setup_simplefb_node.str1.1
                0x00000000000617d0       0x2c common/built-in.o
 .rodata.fdt_size_cells.str1.1
                0x00000000000617fc        0xc lib/built-in.o
 .rodata.fdt_strerror.str1.1
                0x00000000000617fc       0x31 lib/built-in.o
 .rodata.fdt_support_default_count_cells.str1.1
                0x000000000006182d        0xc common/built-in.o
 .rodata.fdt_translate_address.str1.1
                0x0000000000061839        0x7 common/built-in.o
 .rodata.fdt_valid.str1.1
                0x0000000000061840       0x79 cmd/built-in.o
                                         0x7b (size before relaxing)
 .rodata.fdtdec_add_aliases_for_id.str1.1
                0x00000000000618b9        0x9 lib/built-in.o
 .rodata.fdtdec_get_chosen_prop.str1.1
                0x00000000000618b9        0x8 lib/built-in.o
 .rodata.fdtdec_get_config_int.str1.1
                0x00000000000618b9        0x8 lib/built-in.o
 .rodata.fdtdec_get_is_enabled.str1.1
                0x00000000000618c1        0xc lib/built-in.o
 .rodata.fdtdec_prepare_fdt.str1.1
                0x00000000000618c1       0x96 lib/built-in.o
 .rodata.fdtdec_setup.str1.1
                0x0000000000061957        0xf lib/built-in.o
 .rodata.file_fat_detectfs.str1.1
                0x0000000000061957       0x64 fs/built-in.o
                                         0x84 (size before relaxing)
 .rodata.file_fat_read_at.str1.1
                0x00000000000619bb       0x2a fs/built-in.o
 .rodata.file_fat_write_at.str1.1
                0x00000000000619e5       0xa7 fs/built-in.o
 .rodata.file_get.str1.1
                0x0000000000061a8c        0x9 common/built-in.o
                                          0xc (size before relaxing)
 .rodata.file_open.str1.1
                0x0000000000061a95        0xa lib/built-in.o
                                          0xb (size before relaxing)
 .rodata.find_mmc_device.str1.1
                0x0000000000061a9f       0x19 drivers/built-in.o
 .rodata.find_valid_gpt.str1.1
                0x0000000000061ab8       0x6c disk/built-in.o
 .rodata.format_mac_pxe.str1.1
                0x0000000000061b24       0x41 cmd/built-in.o
                                         0x45 (size before relaxing)
 .rodata.from_env.str1.1
                0x0000000000061b65       0x22 cmd/built-in.o
 .rodata.fs_devread.str1.1
                0x0000000000061b87       0x98 fs/built-in.o
 .rodata.fs_ln.str1.1
                0x0000000000061c1f       0x26 fs/built-in.o
 .rodata.fs_ls_generic.str1.1
                0x0000000000061c45       0x37 fs/built-in.o
 .rodata.fs_probe_unsupported.str1.1
                0x0000000000061c7c       0x24 fs/built-in.o
 .rodata.fs_write.str1.1
                0x0000000000061ca0       0x1f fs/built-in.o
 .rodata.genimg_get_arch_name.str1.1
                0x0000000000061cbf       0x15 common/built-in.o
 .rodata.genimg_get_comp_name.str1.1
                0x0000000000061cd4       0x14 common/built-in.o
 .rodata.genimg_get_os_name.str1.1
                0x0000000000061ce8        0xb common/built-in.o
 .rodata.genimg_get_type_name.str1.1
                0x0000000000061cf3        0xe common/built-in.o
 .rodata.genimg_print_size.str1.1
                0x0000000000061d01        0xc common/built-in.o
                                          0xe (size before relaxing)
 .rodata.genphy_update_link.str1.1
                0x0000000000061d0d       0x54 drivers/net/phy/built-in.o
                                         0x56 (size before relaxing)
 .rodata.get_descriptor_len.str1.1
                0x0000000000061d61       0x64 common/built-in.o
 .rodata.get_fatent.str1.1
                0x0000000000061dc5       0x22 fs/built-in.o
 .rodata.get_local_var.str1.1
                0x0000000000061de7        0x3 common/built-in.o
 .rodata.get_phy_device_by_mask.str1.1
                0x0000000000061dea       0x3f drivers/net/phy/built-in.o
 .rodata.get_pxelinux_path.str1.1
                0x0000000000061e29       0x3e cmd/built-in.o
 .rodata.get_relfile.str1.1
                0x0000000000061e67       0x56 cmd/built-in.o
                                         0x63 (size before relaxing)
 .rodata.gpio_direction_input.str1.1
                0x0000000000061ebd        0xa drivers/gpio/built-in.o
 .rodata.gpio_direction_output.str1.1
                0x0000000000061ec7        0xb drivers/gpio/built-in.o
 .rodata.gpio_get_description.str1.1
                0x0000000000061ed2        0xa cmd/built-in.o
                                         0x18 (size before relaxing)
 .rodata.gpio_get_status.str1.1
                0x0000000000061edc       0x17 drivers/gpio/built-in.o
                                         0x19 (size before relaxing)
 .rodata.gpio_request_tail.str1.1
                0x0000000000061ef3        0x8 drivers/gpio/built-in.o
                                          0xe (size before relaxing)
 .rodata.gzip_parse_header.str1.1
                0x0000000000061efb       0x3e lib/built-in.o
 .rodata.handle_include.str1.1
                0x0000000000061f39       0x33 cmd/built-in.o
 .rodata.handle_pxe_menu.str1.1
                0x0000000000061f6c       0x15 cmd/built-in.o
                                         0x18 (size before relaxing)
 .rodata.hang.str1.1
                0x0000000000061f81       0x2a lib/built-in.o
 .rodata.hash_command.str1.1
                0x0000000000061fab       0x25 common/built-in.o
 .rodata.hex_asc
                0x0000000000061fd0       0x11 lib/built-in.o
                0x0000000000061fd0                hex_asc
 .rodata.hexport_r.str1.1
                0x0000000000061fe1       0x30 lib/built-in.o
 .rodata.himport_r.str1.1
                0x0000000000062011       0x99 lib/built-in.o
 .rodata.illegal
                0x00000000000620aa       0x11 lib/built-in.o
 .rodata.image_decomp.str1.1
                0x00000000000620bb       0x2b common/built-in.o
                                         0x4e (size before relaxing)
 .rodata.image_info.str1.1
                0x00000000000620e6       0xac cmd/built-in.o
 .rodata.image_print_contents.str1.1
                0x0000000000062192       0xd0 common/built-in.o
                                         0xd4 (size before relaxing)
 .rodata.image_setup_libfdt.str1.1
                0x0000000000062262       0xbb common/built-in.o
 .rodata.image_source_script.str1.1
                0x000000000006231d       0x7e cmd/built-in.o
 .rodata.inflate.str1.1
                0x000000000006239b      0x158 lib/built-in.o
 .rodata.inflate_fast.str1.1
                0x00000000000624f3       0x50 lib/built-in.o
 .rodata.init_baud_rate.str1.1
                0x0000000000062543        0x9 common/built-in.o
 .rodata.init_mmc_device.str1.1
                0x000000000006254c       0x1a cmd/built-in.o
 .rodata.initr_env.str1.1
                0x0000000000062566       0x11 common/built-in.o
                                         0x29 (size before relaxing)
 .rodata.initr_ethaddr.str1.1
                0x0000000000062577        0x8 common/built-in.o
 .rodata.initr_mmc.str1.1
                0x0000000000062577        0x8 common/built-in.o
 .rodata.initr_net.str1.1
                0x000000000006257f        0x8 common/built-in.o
 .rodata.insert_var_value_sub.str1.1
                0x0000000000062587        0x6 common/built-in.o
 .rodata.ip_to_string.str1.1
                0x000000000006258d        0xc net/built-in.o
 .rodata.is_gpt_valid.str1.1
                0x0000000000062599       0xea disk/built-in.o
 .rodata.label_boot.str1.1
                0x0000000000062683      0x15f cmd/built-in.o
                                        0x1c5 (size before relaxing)
 .rodata.label_print.str1.1
                0x00000000000627e2        0x8 cmd/built-in.o
 .rodata.lan7x_eth_phylib_config_start.str1.1
                0x00000000000627ea       0x2f drivers/usb/eth/built-in.o
 .rodata.lan7x_eth_phylib_connect.str1.1
                0x0000000000062819       0x14 drivers/usb/eth/built-in.o
 .rodata.lan7x_phylib_register.str1.1
                0x000000000006282d       0x41 drivers/usb/eth/built-in.o
 .rodata.lcd_dt_simplefb_add_node.str1.1
                0x000000000006286e        0xb common/built-in.o
                                         0x1e (size before relaxing)
 .rodata.lcd_dt_simplefb_configure_node.str1.1
                0x0000000000062879       0x10 common/built-in.o
 .rodata.list_sort.str1.1
                0x0000000000062889       0x34 lib/built-in.o
 .rodata.lists_bind_drivers.str1.1
                0x00000000000628bd       0x1a drivers/built-in.o
 .rodata.lists_bind_fdt.str1.1
                0x00000000000628d7       0x3f drivers/built-in.o
                                         0x4a (size before relaxing)
 .rodata.lmb_alloc_base.str1.1
                0x0000000000062916       0x34 lib/built-in.o
 .rodata.load_serial.str1.1
                0x000000000006294a       0x65 cmd/built-in.o
 .rodata.load_serial_ymodem.str1.1
                0x00000000000629af       0x28 cmd/built-in.o
                                         0x35 (size before relaxing)
 .rodata.mach_cpu_init.str1.1
                0x00000000000629d7        0x5 arch/arm/mach-bcm283x/built-in.o
 .rodata.main_loop.str1.1
                0x00000000000629dc       0x19 common/built-in.o
 .rodata.match.str1.1
                0x00000000000629f5       0x18 lib/built-in.o
 .rodata.match_entry.str1.1
                0x0000000000062a0d       0x1b lib/built-in.o
 .rodata.match_string.str1.1
                0x0000000000062a0d       0x2c lib/built-in.o
 .rodata.mdio_list_devices.str1.1
                0x0000000000062a39       0x12 common/built-in.o
                                         0x19 (size before relaxing)
 .rodata.mdio_phydev_for_ethname.str1.1
                0x0000000000062a4b       0x1c common/built-in.o
 .rodata.mdio_register.str1.1
                0x0000000000062a67       0x2c common/built-in.o
 .rodata.menu_get_choice.str1.1
                0x0000000000062a93       0x1d common/built-in.o
                                         0x2a (size before relaxing)
 .rodata.miiphy_duplex.str1.1
                0x0000000000062ab0       0x4f common/built-in.o
 .rodata.miiphy_get_dev_by_name.str1.1
                0x0000000000062aff       0x13 common/built-in.o
 .rodata.miiphy_listdev.str1.1
                0x0000000000062b12       0x2a common/built-in.o
 .rodata.miiphy_set_current_dev.str1.1
                0x0000000000062b3c       0x14 common/built-in.o
 .rodata.miiphy_speed.str1.1
                0x0000000000062b50       0x49 common/built-in.o
 .rodata.misc_init_r.str1.1
                0x0000000000062b99       0xb3 board/raspberrypi/rpi/built-in.o
                                         0xbe (size before relaxing)
 .rodata.mmc_berase.str1.1
                0x0000000000062c4c       0x6f drivers/built-in.o
 .rodata.mmc_bind.str1.1
                0x0000000000062cbb        0x8 drivers/built-in.o
                                          0xc (size before relaxing)
 .rodata.mmc_bread.str1.1
                0x0000000000062cc3       0x47 drivers/built-in.o
 .rodata.mmc_bwrite.str1.1
                0x0000000000062d0a       0x12 drivers/built-in.o
                                         0x59 (size before relaxing)
 .rodata.mmc_get_op_cond.str1.1
                0x0000000000062d1c       0x29 drivers/built-in.o
 .rodata.mmc_hwpart_config.str1.1
                0x0000000000062d45      0x19f drivers/built-in.o
 .rodata.mmc_initialize.str1.1
                0x0000000000062ee4       0x17 drivers/built-in.o
 .rodata.mmc_mode_name.str1.1
                0x0000000000062efb        0xd drivers/built-in.o
 .rodata.mmc_poll_for_busy.str1.1
                0x0000000000062f08       0x32 drivers/built-in.o
 .rodata.mmc_start_init.str1.1
                0x0000000000062f3a       0x16 drivers/built-in.o
 .rodata.mmc_startup.str1.1
                0x0000000000062f50       0x81 drivers/built-in.o
                                         0x87 (size before relaxing)
 .rodata.mod_mem.isra.0.part.0.str1.1
                0x0000000000062fd1       0x1d cmd/built-in.o
 .rodata.multipliers
                0x0000000000062fee       0x10 drivers/built-in.o
 .rodata.names.8718
                0x0000000000062ffe        0x6 lib/built-in.o
 .rodata.net_auto_load.str1.1
                0x0000000000063004       0x45 net/built-in.o
 .rodata.net_bcast_ethaddr
                0x0000000000063049        0x6 net/built-in.o
                0x0000000000063049                net_bcast_ethaddr
 .rodata.net_check_prereq.str1.1
                0x000000000006304f       0xbc net/built-in.o
 .rodata.net_loop.str1.1
                0x000000000006310b       0x29 net/built-in.o
                                         0x3b (size before relaxing)
 .rodata.net_null_ethaddr
                0x0000000000063134        0x6 net/built-in.o
                0x0000000000063134                net_null_ethaddr
 .rodata.net_process_received_packet.str1.1
                0x000000000006313a       0x1d net/built-in.o
 .rodata.net_start_again.str1.1
                0x0000000000063157        0xe net/built-in.o
                                         0x15 (size before relaxing)
 .rodata.netboot_common.str1.1
                0x0000000000063165       0x16 cmd/built-in.o
                                         0x53 (size before relaxing)
 .rodata.nfs_handler.str1.1
                0x000000000006317b       0x56 net/built-in.o
 .rodata.nfs_lookup_reply.str1.1
                0x00000000000631d1       0x25 net/built-in.o
                                         0x27 (size before relaxing)
 .rodata.nfs_read_reply.str1.1
                0x00000000000631f6        0x4 net/built-in.o
 .rodata.nfs_readlink_reply.str1.1
                0x00000000000631fa        0x2 net/built-in.o
 .rodata.nfs_start.str1.1
                0x00000000000631fa      0x104 net/built-in.o
                                        0x105 (size before relaxing)
 .rodata.nfs_timeout_handler.str1.1
                0x00000000000632fe       0x2a net/built-in.o
 .rodata.normalize_longname.str1.1
                0x0000000000063328        0xa fs/built-in.o
 .rodata.ofnode_pre_reloc.str1.1
                0x0000000000063332       0x45 drivers/built-in.o
 .rodata.on_baudrate.str1.1
                0x0000000000063377       0x42 drivers/serial/built-in.o
                                         0x74 (size before relaxing)
 .rodata.on_callbacks.str1.1
                0x00000000000633b9      0x105 env/built-in.o
 .rodata.on_console.str1.1
                0x00000000000634be        0x7 common/built-in.o
                                         0x27 (size before relaxing)
 .rodata.on_flags.str1.1
                0x00000000000634be       0x5b env/built-in.o
 .rodata.overlay_adjust_node_phandles.str1.1
                0x0000000000063519       0x16 lib/built-in.o
 .rodata.overlay_get_target.str1.1
                0x0000000000063519       0x13 lib/built-in.o
 .rodata.parse_attr.part.0.str1.1
                0x000000000006352c       0x1d lib/built-in.o
                                         0x2c (size before relaxing)
 .rodata.parse_integer.str1.1
                0x0000000000063549       0x17 cmd/built-in.o
 .rodata.parse_pxefile_top.str1.1
                0x0000000000063560       0x89 cmd/built-in.o
                                         0x8b (size before relaxing)
 .rodata.parse_sliteral.str1.1
                0x00000000000635e9       0x1f cmd/built-in.o
 .rodata.parse_stream_outer.str1.1
                0x0000000000063608       0x4d common/built-in.o
 .rodata.parse_string_outer.str1.1
                0x0000000000063655        0x2 common/built-in.o
 .rodata.part_get_info_efi.str1.1
                0x0000000000063655        0xa disk/built-in.o
 .rodata.part_get_info_extended.str1.1
                0x0000000000063655       0x8b disk/built-in.o
                                         0x92 (size before relaxing)
 .rodata.part_get_info_iso_verb.str1.1
                0x00000000000636e0      0x1bf disk/built-in.o
                                        0x1c6 (size before relaxing)
 .rodata.part_get_info_whole_disk.str1.1
                0x000000000006389f        0xb disk/built-in.o
                                         0x12 (size before relaxing)
 .rodata.part_print.str1.1
                0x00000000000638aa       0x8e disk/built-in.o
                                         0x97 (size before relaxing)
 .rodata.part_print_dos.str1.1
                0x0000000000063938       0x2a disk/built-in.o
 .rodata.part_print_efi.str1.1
                0x0000000000063962       0x8d disk/built-in.o
 .rodata.part_print_iso.str1.1
                0x00000000000639ef       0x68 disk/built-in.o
 .rodata.part_set_generic_name.str1.1
                0x0000000000063a57        0xa disk/built-in.o
 .rodata.phy_connect.str1.1
                0x0000000000063a61       0x23 drivers/net/phy/built-in.o
 .rodata.phy_connect_dev.str1.1
                0x0000000000063a84       0x2f drivers/net/phy/built-in.o
 .rodata.phy_reset.str1.1
                0x0000000000063ab3       0x15 drivers/net/phy/built-in.o
 .rodata.pinconfig_post_bind.str1.1
                0x0000000000063ac8       0x1a drivers/built-in.o
                                         0x25 (size before relaxing)
 .rodata.pinctrl_select_state.str1.1
                0x0000000000063ae2       0x31 drivers/built-in.o
 .rodata.ping_start.str1.1
                0x0000000000063b13       0x11 net/built-in.o
 .rodata.pl01x_serial_ofdata_to_platdata.str1.1
                0x0000000000063b13       0x10 drivers/serial/built-in.o
 .rodata.print_buffer.str1.1
                0x0000000000063b23        0xe lib/built-in.o
                                         0x17 (size before relaxing)
 .rodata.print_data.str1.1
                0x0000000000063b31       0x27 cmd/built-in.o
                                         0x32 (size before relaxing)
 .rodata.print_freq.str1.1
                0x0000000000063b58       0x1b lib/built-in.o
 .rodata.print_mmc_devices.str1.1
                0x0000000000063b73       0x12 drivers/built-in.o
                                         0x1c (size before relaxing)
 .rodata.print_mmcinfo.str1.1
                0x0000000000063b85      0x1a3 cmd/built-in.o
                                        0x1f5 (size before relaxing)
 .rodata.print_num.str1.1
                0x0000000000063d28       0x10 cmd/built-in.o
 .rodata.print_partition_extended.str1.1
                0x0000000000063d38       0x32 disk/built-in.o
                                         0x33 (size before relaxing)
 .rodata.print_size.str1.1
                0x0000000000063d6a       0x15 lib/built-in.o
 .rodata.quantifier.str1.1
                0x0000000000063d7f       0x17 lib/built-in.o
 .rodata.read_allocated_block.str1.1
                0x0000000000063d96      0x240 fs/built-in.o
 .rodata.read_bootsectandvi.str1.1
                0x0000000000063fd6       0x1b fs/built-in.o
 .rodata.realloc.str1.1
                0x0000000000063ff1       0x25 common/built-in.o
 .rodata.regex_callback.str1.1
                0x0000000000064016        0x5 env/built-in.o
                                         0x20 (size before relaxing)
 .rodata.regex_sub.part.0.str1.1
                0x000000000006401b       0xbd cmd/built-in.o
 .rodata.reset_cpu.str1.1
                0x00000000000640d8       0x37 arch/arm/mach-bcm283x/built-in.o
 .rodata.run_list_real.str1.1
                0x000000000006410f       0x45 common/built-in.o
                                         0x4b (size before relaxing)
 .rodata.sdhci_probe.str1.1
                0x0000000000064154       0x2d drivers/built-in.o
 .rodata.sdhci_reset.str1.1
                0x0000000000064181       0x21 drivers/built-in.o
 .rodata.sdhci_send_command.str1.1
                0x00000000000641a2       0x76 drivers/built-in.o
 .rodata.sdhci_set_clock.str1.1
                0x0000000000064218       0x4e drivers/built-in.o
 .rodata.sdhci_setup_cfg.str1.1
                0x0000000000064266       0x4e drivers/built-in.o
 .rodata.serial_init.str1.1
                0x00000000000642b4        0xc drivers/serial/built-in.o
                                         0x14 (size before relaxing)
 .rodata.set_contents.str1.1
                0x00000000000642c0       0x3b fs/built-in.o
 .rodata.set_local_var.str1.1
                0x00000000000642fb       0x59 common/built-in.o
 .rodata.set_working_fdt_addr.str1.1
                0x0000000000064354        0x8 cmd/built-in.o
 .rodata.show_devices.str1.1
                0x000000000006435c       0x33 drivers/built-in.o
                                         0x3c (size before relaxing)
 .rodata.show_dram_config.str1.1
                0x000000000006438f        0x1 common/built-in.o
 .rodata.show_pinmux.str1.1
                0x000000000006438f       0x6d cmd/built-in.o
 .rodata.show_regs.str1.1
                0x00000000000643fc      0x114 arch/arm/lib/built-in.o
                                        0x140 (size before relaxing)
 .rodata.simple_bus_post_bind.str1.1
                0x0000000000064510        0x7 drivers/built-in.o
 .rodata.simple_panel_ofdata_to_platdata.str1.1
                0x0000000000064510        0xd drivers/built-in.o
                                         0x17 (size before relaxing)
 .rodata.smbios_write_type0.str1.1
                0x000000000006451d       0x17 lib/built-in.o
                                         0x1e (size before relaxing)
 .rodata.smbios_write_type1.str1.1
                0x0000000000064534        0x8 lib/built-in.o
 .rodata.smbios_write_type2.str1.1
                0x0000000000064534        0xc lib/built-in.o
                                          0x4 (size before relaxing)
 .rodata.smbios_write_type3.str1.1
                0x0000000000064534        0xc lib/built-in.o
 .rodata.smbios_write_type4.str1.1
                0x0000000000064540        0x8 lib/built-in.o
 .rodata.smsc95xx_eth_start.str1.1
                0x0000000000064540       0x75 drivers/usb/eth/built-in.o
 .rodata.split_filename.str1.1
                0x00000000000645b5        0x2 fs/built-in.o
 .rodata.stdio_add_devices.str1.1
                0x00000000000645b5       0x1f common/built-in.o
                                         0x26 (size before relaxing)
 .rodata.stdio_deregister_dev.str1.1
                0x00000000000645d4        0x8 common/built-in.o
 .rodata.stdio_get_by_name.str1.1
                0x00000000000645dc        0xb common/built-in.o
 .rodata.stdio_print_current_devices.str1.1
                0x00000000000645e7       0x70 common/built-in.o
                                         0x74 (size before relaxing)
 .rodata.store_char_in_data.str1.1
                0x0000000000064657       0x1f lib/built-in.o
 .rodata.str1.1
                0x0000000000064676       0xeb arch/arm/lib/built-in.o
 .rodata.str1.1
                0x0000000000064761      0x1d5 board/raspberrypi/rpi/built-in.o
                                        0x1ef (size before relaxing)
 .rodata.str1.1
                0x0000000000064936     0x38f7 cmd/built-in.o
                                       0x3bff (size before relaxing)
 .rodata.str1.1
                0x000000000006822d      0x900 common/built-in.o
                                        0x988 (size before relaxing)
 .rodata.str1.1
                0x0000000000068b2d       0x1f disk/built-in.o
                                         0x22 (size before relaxing)
 .rodata.str1.1
                0x0000000000068b4c      0x30c drivers/built-in.o
                                        0x377 (size before relaxing)
 .rodata.str1.1
                0x0000000000068e58       0x14 drivers/gpio/built-in.o
                                         0x33 (size before relaxing)
 .rodata.str1.1
                0x0000000000068e6c       0x8d drivers/net/phy/built-in.o
                                         0xac (size before relaxing)
 .rodata.str1.1
                0x0000000000068ef9       0x6a drivers/serial/built-in.o
                                         0x7a (size before relaxing)
 .rodata.str1.1
                0x0000000000068f63       0x19 drivers/usb/eth/built-in.o
 .rodata.str1.1
                0x0000000000068f7c       0x45 drivers/usb/host/built-in.o
                                         0x49 (size before relaxing)
 .rodata.str1.1
                0x0000000000068fc1       0xb2 env/built-in.o
                                         0x14 (size before relaxing)
 .rodata.str1.1
                0x0000000000068fc1       0x11 fs/built-in.o
                                         0x15 (size before relaxing)
 .rodata.str1.1
                0x0000000000068fd2      0x4b7 lib/built-in.o
                                        0x4c9 (size before relaxing)
 .rodata.str1.1
                0x0000000000069489        0x6 net/built-in.o
                                         0x35 (size before relaxing)
 .rodata.string.str1.1
                0x000000000006948f        0x7 lib/built-in.o
 .rodata.substitute.str1.1
                0x0000000000069496       0x28 cmd/built-in.o
 .rodata.syntax_err.str1.1
                0x00000000000694be        0xe common/built-in.o
 .rodata.tab_seq
                0x00000000000694cc        0x9 common/built-in.o
 .rodata.test_block_type.str1.1
                0x00000000000694d5        0xa disk/built-in.o
 .rodata.tftp_handler.str1.1
                0x00000000000694df       0x9a net/built-in.o
                                         0xb2 (size before relaxing)
 .rodata.tftp_send.str1.1
                0x0000000000069579       0x42 net/built-in.o
                                         0x4e (size before relaxing)
 .rodata.tftp_start.str1.1
                0x00000000000695bb       0xe8 net/built-in.o
                                        0x180 (size before relaxing)
 .rodata.tftp_timeout_handler.str1.1
                0x00000000000696a3       0x2a net/built-in.o
                                         0x2d (size before relaxing)
 .rodata.timer_read_counter.str1.1
                0x00000000000696cd        0xb lib/built-in.o
                                         0x24 (size before relaxing)
 .rodata.try_load_entry.str1.1
                0x00000000000696d8       0x4a lib/built-in.o
 .rodata.u_boot_hush_start.str1.1
                0x0000000000069722       0x12 common/built-in.o
 .rodata.uclass_resolve_seq.str1.1
                0x0000000000069734       0x27 drivers/built-in.o
 .rodata.us_direction
                0x000000000006975b       0x20 common/built-in.o
 .rodata.usb_child_post_bind.str1.1
                0x000000000006977b       0x25 drivers/usb/host/built-in.o
 .rodata.usb_display_class_sub.str1.1
                0x00000000000697a0       0xb6 cmd/built-in.o
                                         0xbc (size before relaxing)
 .rodata.usb_display_config.str1.1
                0x0000000000069856      0x10d cmd/built-in.o
                                        0x118 (size before relaxing)
 .rodata.usb_display_desc.str1.1
                0x0000000000069963       0xac cmd/built-in.o
                                         0xae (size before relaxing)
 .rodata.usb_display_string.str1.1
                0x0000000000069a0f        0xd cmd/built-in.o
 .rodata.usb_ether_receive.str1.1
                0x0000000000069a1c       0x1b drivers/usb/eth/built-in.o
 .rodata.usb_find_usb2_hub_address_port.str1.1
                0x0000000000069a37       0x36 common/built-in.o
 .rodata.usb_get_class_desc.str1.1
                0x0000000000069a6d       0x64 cmd/built-in.o
                                         0x65 (size before relaxing)
 .rodata.usb_get_configuration_len.str1.1
                0x0000000000069ad1       0x58 common/built-in.o
 .rodata.usb_hub_configure.str1.1
                0x0000000000069b29       0x5f common/built-in.o
 .rodata.usb_hub_port_connect_change.str1.1
                0x0000000000069b88       0x18 common/built-in.o
 .rodata.usb_init.str1.1
                0x0000000000069ba0       0x54 drivers/usb/host/built-in.o
 .rodata.usb_kbd_num_keypad
                0x0000000000069bf4       0x14 common/built-in.o
 .rodata.usb_kbd_numkey
                0x0000000000069c08       0x1b common/built-in.o
 .rodata.usb_kbd_numkey_shifted
                0x0000000000069c23       0x1b common/built-in.o
 .rodata.usb_kbd_probe.str1.1
                0x0000000000069c3e       0x5c common/built-in.o
 .rodata.usb_kbd_remove.str1.1
                0x0000000000069c9a       0x1b common/built-in.o
                                         0x21 (size before relaxing)
 .rodata.usb_mass_storage_probe.str1.1
                0x0000000000069cb5       0x16 common/built-in.o
 .rodata.usb_scan_bus.isra.0.str1.1
                0x0000000000069ccb       0x4d drivers/usb/host/built-in.o
                                         0x5f (size before relaxing)
 .rodata.usb_scan_device.str1.1
                0x0000000000069d18       0x2a drivers/usb/host/built-in.o
 .rodata.usb_select_config.str1.1
                0x0000000000069d42      0x220 common/built-in.o
 .rodata.usb_set_interface.str1.1
                0x0000000000069f62       0x1f common/built-in.o
 .rodata.usb_setup_descriptor.str1.1
                0x0000000000069f81       0x1d common/built-in.o
 .rodata.usb_setup_device.str1.1
                0x0000000000069f9e       0x68 common/built-in.o
 .rodata.usb_show_tree_graph.str1.1
                0x000000000006a006       0x2f cmd/built-in.o
                                         0x3a (size before relaxing)
 .rodata.usb_special_keys
                0x000000000006a035        0xa common/built-in.o
 .rodata.usb_stor_CBI_get_status.isra.0.str1.1
                0x000000000006a03f       0x1f common/built-in.o
 .rodata.usb_stor_CB_transport.str1.1
                0x000000000006a05e       0x6e common/built-in.o
 .rodata.usb_stor_get_info.str1.1
                0x000000000006a0cc       0x5d common/built-in.o
 .rodata.usb_stor_info.str1.1
                0x000000000006a129       0x32 common/built-in.o
                                         0x40 (size before relaxing)
 .rodata.usb_stor_scan.str1.1
                0x000000000006a15b       0x48 common/built-in.o
 .rodata.usb_storage_probe.str1.1
                0x000000000006a1a3       0x5c common/built-in.o
 .rodata.uuid_bin_to_str.str1.1
                0x000000000006a1ff        0x5 lib/built-in.o
                                          0xa (size before relaxing)
 .rodata.valid_elf_image.str1.1
                0x000000000006a204       0x52 lib/built-in.o
 .rodata.validate_gpt_entries.str1.1
                0x000000000006a256       0x40 disk/built-in.o
 .rodata.validate_gpt_header.str1.1
                0x000000000006a296       0xe1 disk/built-in.o
 .rodata.var_complete.str1.1
                0x000000000006a377        0x1 common/built-in.o
 .rodata.version_string
                0x000000000006a377       0x32 cmd/built-in.o
                0x000000000006a377                version_string
 .rodata.vidconsole_post_probe.str1.1
                0x000000000006a3a9       0x18 drivers/built-in.o
 .rodata.video_fontdata
                0x000000000006a3a9     0x1000 drivers/built-in.o
 .rodata.video_post_bind.str1.1
                0x000000000006b3a9       0x66 drivers/built-in.o
 .rodata.video_post_probe.str1.1
                0x000000000006b40f       0x10 drivers/built-in.o
                                         0x1d (size before relaxing)
 .rodata.write_smbios_table.str1.1
                0x000000000006b41f        0xb lib/built-in.o
 .rodata.xmalloc.str1.1
                0x000000000006b42a       0x1e common/built-in.o
 .rodata.xyzModem_error.str1.1
                0x000000000006b448        0xe common/built-in.o
 .rodata.xyzModem_stream_close.str1.1
                0x000000000006b456       0x47 common/built-in.o
                                         0x4b (size before relaxing)
 .rodata.xyzModem_stream_open.str1.1
                0x000000000006b49d        0x2 common/built-in.o
 .rodata.zunzip.str1.1
                0x000000000006b49d       0x47 lib/built-in.o

.hash           0x000000000006b4e4       0x18
 .hash          0x000000000006b4e4       0x18 arch/arm/cpu/armv7/start.o

.dtb.init.rodata
                0x000000000006b500     0x3750
 .dtb.init.rodata
                0x000000000006b500     0x3750 dts/built-in.o
                0x000000000006b500                __dtb_dt_begin
                0x000000000006ec50                __dtb_dt_end
                0x000000000006ec50                . = ALIGN (0x4)

.data           0x000000000006ec50     0x2ddc
 *(.data*)
 .data.rel.ro   0x000000000006ec50        0x0 arch/arm/cpu/armv7/start.o
 .data.rpi_bcm283x_base
                0x000000000006ec50        0x4 arch/arm/mach-bcm283x/built-in.o
                0x000000000006ec50                rpi_bcm283x_base
 .data          0x000000000006ec54        0x4 board/raspberrypi/rpi/built-in.o
                0x000000000006ec54                fw_dtb_pointer
 .data.bootm_help_text
                0x000000000006ec58      0x38b cmd/built-in.o
 *fill*         0x000000000006efe3        0x1 
 .data.cmd_bootm_sub
                0x000000000006efe4       0xfc cmd/built-in.o
 .data.source_help_text
                0x000000000006f0e0       0x4e cmd/built-in.o
 *fill*         0x000000000006f12e        0x2 
 .data.cmd_blkc_sub
                0x000000000006f130       0x38 cmd/built-in.o
 .data.bootefi_help_text
                0x000000000006f168      0x18b cmd/built-in.o
 .data.bootz_help_text
                0x000000000006f2f3      0x208 cmd/built-in.o
 *fill*         0x000000000006f4fb        0x1 
 .data.test_commands
                0x000000000006f4fc       0x70 cmd/built-in.o
 .data.fdt_help_text
                0x000000000006f56c      0x6e4 cmd/built-in.o
 .data.root.8897
                0x000000000006fc50        0x2 cmd/built-in.o
 .data.tabs.8985
                0x000000000006fc52       0x21 cmd/built-in.o
 *fill*         0x000000000006fc73        0x1 
 .data.do_echo  0x000000000006fc74        0x4 cmd/built-in.o
 .data.dp_last_length
                0x000000000006fc78        0x4 cmd/built-in.o
 .data.cmd_mmc  0x000000000006fc7c      0x134 cmd/built-in.o
 .data.curr_device
                0x000000000006fdb0        0x4 cmd/built-in.o
 .data.pinmux_subcmd
                0x000000000006fdb4       0x54 cmd/built-in.o
 .data.cmd_pxe_sub
                0x000000000006fe08       0x38 cmd/built-in.o
 .data.pxe_default_paths
                0x000000000006fe40       0x14 cmd/built-in.o
                0x000000000006fe40                pxe_default_paths
 .data.usb_stor_curr_dev
                0x000000000006fe54        0x4 cmd/built-in.o
 .data.imgextract_help_text
                0x000000000006fe58       0x55 cmd/built-in.o
 *fill*         0x000000000006fead        0x3 
 .data.cmd_env_sub
                0x000000000006feb0      0x118 cmd/built-in.o
 .data.env_help_text
                0x000000000006ffc8      0x259 cmd/built-in.o
 *fill*         0x0000000000070221        0x3 
 .data.env_id   0x0000000000070224        0x4 cmd/built-in.o
 .data.reserved_list
                0x0000000000070228       0x84 common/built-in.o
 .data.init_sequence_r
                0x00000000000702ac       0x74 common/built-in.o
 .data.of_busses
                0x0000000000070320       0x18 common/built-in.o
 .data.usb_scan_list
                0x0000000000070338        0x8 common/built-in.o
 .data.hist_cur
                0x0000000000070340        0x4 common/built-in.o
 .data.av_      0x0000000000070344      0x408 common/built-in.o
 .data.sbrk_base
                0x000000000007074c        0x4 common/built-in.o
 .data.trim_threshold
                0x0000000000070750        0x4 common/built-in.o
 .data.image_load_addr
                0x0000000000070754        0x4 common/built-in.o
                0x0000000000070754                image_load_addr
 .data.stdio_names
                0x0000000000070758        0xc common/built-in.o
                0x0000000000070758                stdio_names
 .data.bcm283x_pinctrl_ops
                0x0000000000070764       0x50 drivers/built-in.o
 .data._stats   0x00000000000707b4       0x14 drivers/built-in.o
 .data.block_cache
                0x00000000000707c8        0x8 drivers/built-in.o
 .data.cmd_timeout.10184
                0x00000000000707d0        0x4 drivers/built-in.o
 .data.console_normal_ops
                0x00000000000707d4       0x14 drivers/built-in.o
                0x00000000000707d4                console_normal_ops
 .data.genphy_driver
                0x00000000000707e8       0x40 drivers/net/phy/built-in.o
 .data.phy_drivers
                0x0000000000070828        0x8 drivers/net/phy/built-in.o
 .data.dwc2_usb_ops
                0x0000000000070830       0x2c drivers/usb/host/built-in.o
                0x0000000000070830                dwc2_usb_ops
 .data.root_hub_config_des
                0x000000000007085c       0x19 drivers/usb/host/built-in.o
 .data.root_hub_dev_des
                0x0000000000070875       0x12 drivers/usb/host/built-in.o
 .data.root_hub_str_index0
                0x0000000000070887        0x4 drivers/usb/host/built-in.o
 .data.root_hub_str_index1
                0x000000000007088b       0x20 drivers/usb/host/built-in.o
 *fill*         0x00000000000708ab        0x1 
 .data.env_htab
                0x00000000000708ac       0x10 env/built-in.o
                0x00000000000708ac                env_htab
 .data.first_call
                0x00000000000708bc        0x8 env/built-in.o
 .data.fstypes  0x00000000000708c4       0xcc fs/built-in.o
 .data.ext4fs_indir1_blkno
                0x0000000000070990        0x4 fs/built-in.o
                0x0000000000070990                ext4fs_indir1_blkno
 .data.ext4fs_indir2_blkno
                0x0000000000070994        0x4 fs/built-in.o
                0x0000000000070994                ext4fs_indir2_blkno
 .data.ext4fs_indir3_blkno
                0x0000000000070998        0x4 fs/built-in.o
                0x0000000000070998                ext4fs_indir3_blkno
 *fill*         0x000000000007099c        0x4 
 .data.efi_boot_services
                0x00000000000709a0       0xc8 lib/built-in.o
 .data.efi_event_queue
                0x0000000000070a68        0x8 lib/built-in.o
                0x0000000000070a68                efi_event_queue
 .data.efi_obj_list
                0x0000000000070a70        0x8 lib/built-in.o
                0x0000000000070a70                efi_obj_list
 .data.efi_register_notify_events
                0x0000000000070a78        0x8 lib/built-in.o
                0x0000000000070a78                efi_register_notify_events
 .data.efi_tpl  0x0000000000070a80        0x4 lib/built-in.o
 .data.entry_count
                0x0000000000070a84        0x4 lib/built-in.o
 .data.timers_enabled
                0x0000000000070a88        0x1 lib/built-in.o
 *fill*         0x0000000000070a89        0x3 
 .data.cin_notify_functions
                0x0000000000070a8c        0x8 lib/built-in.o
 .data.efi_con_in
                0x0000000000070a94        0xc lib/built-in.o
                0x0000000000070a94                efi_con_in
 .data.efi_con_in_ex
                0x0000000000070aa0       0x18 lib/built-in.o
 .data.efi_con_mode
                0x0000000000070ab8       0x18 lib/built-in.o
 .data.efi_con_out
                0x0000000000070ad0       0x28 lib/built-in.o
                0x0000000000070ad0                efi_con_out
 .data.efi_cout_modes
                0x0000000000070af8       0x24 lib/built-in.o
 .data.efi_keyboard_layout_list
                0x0000000000070b1c        0x8 lib/built-in.o
 .data.efi_package_lists
                0x0000000000070b24        0x8 lib/built-in.o
 .data.efi_mem  0x0000000000070b2c        0x8 lib/built-in.o
                0x0000000000070b2c                efi_mem
 .data.lastoff.11681
                0x0000000000070b34        0x4 lib/built-in.o
 .data.efi_obj_list_initialized
                0x0000000000070b38        0x4 lib/built-in.o
 .data.capitalization_table
                0x0000000000070b3c      0xed0 lib/built-in.o
 .data.first_call.8789
                0x0000000000071a0c        0x4 net/built-in.o
 .data.net_native_vlan
                0x0000000000071a10        0x2 net/built-in.o
                0x0000000000071a10                net_native_vlan
 .data.net_our_vlan
                0x0000000000071a12        0x2 net/built-in.o
                0x0000000000071a12                net_our_vlan
 .data.nfs_offset
                0x0000000000071a14        0x4 net/built-in.o
 .data.supported_nfs_versions
                0x0000000000071a18        0x1 net/built-in.o
 *fill*         0x0000000000071a19        0x1 
 .data.tftp_block_size
                0x0000000000071a1a        0x2 net/built-in.o
 .data.tftp_block_size_option
                0x0000000000071a1c        0x2 net/built-in.o
 *fill*         0x0000000000071a1e        0x2 
 .data.tftp_timeout_count_max
                0x0000000000071a20        0x4 net/built-in.o
                0x0000000000071a20                tftp_timeout_count_max
 .data.timeout_count_max
                0x0000000000071a24        0x4 net/built-in.o
 .data.timeout_ms
                0x0000000000071a28        0x4 net/built-in.o

.got            0x0000000000071a2c        0x0
 .got           0x0000000000071a2c        0x0 arch/arm/cpu/armv7/start.o

.got.plt        0x0000000000071a2c        0xc
 .got.plt       0x0000000000071a2c        0xc arch/arm/cpu/armv7/start.o
                0x0000000000071a2c                _GLOBAL_OFFSET_TABLE_

.igot.plt       0x0000000000071a38        0x0
 .igot.plt      0x0000000000071a38        0x0 arch/arm/cpu/armv7/start.o
                0x0000000000071a38                . = ALIGN (0x4)
                0x0000000000071a38                . = .
                0x0000000000071a38                . = ALIGN (0x4)

.u_boot_list    0x0000000000071a38     0x1684
 *(SORT_BY_NAME(.u_boot_list*))
 .u_boot_list_2_cmd_1
                0x0000000000071a38        0x0 cmd/built-in.o
 .u_boot_list_2_cmd_1
                0x0000000000071a38        0x0 common/built-in.o
 .u_boot_list_2_cmd_2_base
                0x0000000000071a38       0x1c cmd/built-in.o
                0x0000000000071a38                _u_boot_list_2_cmd_2_base
 .u_boot_list_2_cmd_2_bdinfo
                0x0000000000071a54       0x1c cmd/built-in.o
                0x0000000000071a54                _u_boot_list_2_cmd_2_bdinfo
 .u_boot_list_2_cmd_2_blkcache
                0x0000000000071a70       0x1c cmd/built-in.o
                0x0000000000071a70                _u_boot_list_2_cmd_2_blkcache
 .u_boot_list_2_cmd_2_boot
                0x0000000000071a8c       0x1c cmd/built-in.o
                0x0000000000071a8c                _u_boot_list_2_cmd_2_boot
 .u_boot_list_2_cmd_2_bootd
                0x0000000000071aa8       0x1c cmd/built-in.o
                0x0000000000071aa8                _u_boot_list_2_cmd_2_bootd
 .u_boot_list_2_cmd_2_bootefi
                0x0000000000071ac4       0x1c cmd/built-in.o
                0x0000000000071ac4                _u_boot_list_2_cmd_2_bootefi
 .u_boot_list_2_cmd_2_bootelf
                0x0000000000071ae0       0x1c cmd/built-in.o
                0x0000000000071ae0                _u_boot_list_2_cmd_2_bootelf
 .u_boot_list_2_cmd_2_bootm
                0x0000000000071afc       0x1c cmd/built-in.o
                0x0000000000071afc                _u_boot_list_2_cmd_2_bootm
 .u_boot_list_2_cmd_2_bootp
                0x0000000000071b18       0x1c cmd/built-in.o
                0x0000000000071b18                _u_boot_list_2_cmd_2_bootp
 .u_boot_list_2_cmd_2_bootvx
                0x0000000000071b34       0x1c cmd/built-in.o
                0x0000000000071b34                _u_boot_list_2_cmd_2_bootvx
 .u_boot_list_2_cmd_2_bootz
                0x0000000000071b50       0x1c cmd/built-in.o
                0x0000000000071b50                _u_boot_list_2_cmd_2_bootz
 .u_boot_list_2_cmd_2_cmp
                0x0000000000071b6c       0x1c cmd/built-in.o
                0x0000000000071b6c                _u_boot_list_2_cmd_2_cmp
 .u_boot_list_2_cmd_2_coninfo
                0x0000000000071b88       0x1c cmd/built-in.o
                0x0000000000071b88                _u_boot_list_2_cmd_2_coninfo
 .u_boot_list_2_cmd_2_cp
                0x0000000000071ba4       0x1c cmd/built-in.o
                0x0000000000071ba4                _u_boot_list_2_cmd_2_cp
 .u_boot_list_2_cmd_2_crc32
                0x0000000000071bc0       0x1c cmd/built-in.o
                0x0000000000071bc0                _u_boot_list_2_cmd_2_crc32
 .u_boot_list_2_cmd_2_dhcp
                0x0000000000071bdc       0x1c cmd/built-in.o
                0x0000000000071bdc                _u_boot_list_2_cmd_2_dhcp
 .u_boot_list_2_cmd_2_dm
                0x0000000000071bf8       0x1c cmd/built-in.o
                0x0000000000071bf8                _u_boot_list_2_cmd_2_dm
 .u_boot_list_2_cmd_2_echo
                0x0000000000071c14       0x1c cmd/built-in.o
                0x0000000000071c14                _u_boot_list_2_cmd_2_echo
 .u_boot_list_2_cmd_2_editenv
                0x0000000000071c30       0x1c cmd/built-in.o
                0x0000000000071c30                _u_boot_list_2_cmd_2_editenv
 .u_boot_list_2_cmd_2_env
                0x0000000000071c4c       0x1c cmd/built-in.o
                0x0000000000071c4c                _u_boot_list_2_cmd_2_env
 .u_boot_list_2_cmd_2_exit
                0x0000000000071c68       0x1c cmd/built-in.o
                0x0000000000071c68                _u_boot_list_2_cmd_2_exit
 .u_boot_list_2_cmd_2_ext2load
                0x0000000000071c84       0x1c cmd/built-in.o
                0x0000000000071c84                _u_boot_list_2_cmd_2_ext2load
 .u_boot_list_2_cmd_2_ext2ls
                0x0000000000071ca0       0x1c cmd/built-in.o
                0x0000000000071ca0                _u_boot_list_2_cmd_2_ext2ls
 .u_boot_list_2_cmd_2_ext4load
                0x0000000000071cbc       0x1c cmd/built-in.o
                0x0000000000071cbc                _u_boot_list_2_cmd_2_ext4load
 .u_boot_list_2_cmd_2_ext4ls
                0x0000000000071cd8       0x1c cmd/built-in.o
                0x0000000000071cd8                _u_boot_list_2_cmd_2_ext4ls
 .u_boot_list_2_cmd_2_ext4size
                0x0000000000071cf4       0x1c cmd/built-in.o
                0x0000000000071cf4                _u_boot_list_2_cmd_2_ext4size
 .u_boot_list_2_cmd_2_false
                0x0000000000071d10       0x1c cmd/built-in.o
                0x0000000000071d10                _u_boot_list_2_cmd_2_false
 .u_boot_list_2_cmd_2_fatinfo
                0x0000000000071d2c       0x1c cmd/built-in.o
                0x0000000000071d2c                _u_boot_list_2_cmd_2_fatinfo
 .u_boot_list_2_cmd_2_fatload
                0x0000000000071d48       0x1c cmd/built-in.o
                0x0000000000071d48                _u_boot_list_2_cmd_2_fatload
 .u_boot_list_2_cmd_2_fatls
                0x0000000000071d64       0x1c cmd/built-in.o
                0x0000000000071d64                _u_boot_list_2_cmd_2_fatls
 .u_boot_list_2_cmd_2_fatmkdir
                0x0000000000071d80       0x1c cmd/built-in.o
                0x0000000000071d80                _u_boot_list_2_cmd_2_fatmkdir
 .u_boot_list_2_cmd_2_fatrm
                0x0000000000071d9c       0x1c cmd/built-in.o
                0x0000000000071d9c                _u_boot_list_2_cmd_2_fatrm
 .u_boot_list_2_cmd_2_fatsize
                0x0000000000071db8       0x1c cmd/built-in.o
                0x0000000000071db8                _u_boot_list_2_cmd_2_fatsize
 .u_boot_list_2_cmd_2_fatwrite
                0x0000000000071dd4       0x1c cmd/built-in.o
                0x0000000000071dd4                _u_boot_list_2_cmd_2_fatwrite
 .u_boot_list_2_cmd_2_fdt
                0x0000000000071df0       0x1c cmd/built-in.o
                0x0000000000071df0                _u_boot_list_2_cmd_2_fdt
 .u_boot_list_2_cmd_2_fstype
                0x0000000000071e0c       0x1c cmd/built-in.o
                0x0000000000071e0c                _u_boot_list_2_cmd_2_fstype
 .u_boot_list_2_cmd_2_fsuuid
                0x0000000000071e28       0x1c cmd/built-in.o
                0x0000000000071e28                _u_boot_list_2_cmd_2_fsuuid
 .u_boot_list_2_cmd_2_go
                0x0000000000071e44       0x1c cmd/built-in.o
                0x0000000000071e44                _u_boot_list_2_cmd_2_go
 .u_boot_list_2_cmd_2_gpio
                0x0000000000071e60       0x1c cmd/built-in.o
                0x0000000000071e60                _u_boot_list_2_cmd_2_gpio
 .u_boot_list_2_cmd_2_help
                0x0000000000071e7c       0x1c cmd/built-in.o
                0x0000000000071e7c                _u_boot_list_2_cmd_2_help
 .u_boot_list_2_cmd_2_iminfo
                0x0000000000071e98       0x1c cmd/built-in.o
                0x0000000000071e98                _u_boot_list_2_cmd_2_iminfo
 .u_boot_list_2_cmd_2_imxtract
                0x0000000000071eb4       0x1c cmd/built-in.o
                0x0000000000071eb4                _u_boot_list_2_cmd_2_imxtract
 .u_boot_list_2_cmd_2_itest
                0x0000000000071ed0       0x1c cmd/built-in.o
                0x0000000000071ed0                _u_boot_list_2_cmd_2_itest
 .u_boot_list_2_cmd_2_lcdputs
                0x0000000000071eec       0x1c drivers/built-in.o
                0x0000000000071eec                _u_boot_list_2_cmd_2_lcdputs
 .u_boot_list_2_cmd_2_ln
                0x0000000000071f08       0x1c cmd/built-in.o
                0x0000000000071f08                _u_boot_list_2_cmd_2_ln
 .u_boot_list_2_cmd_2_load
                0x0000000000071f24       0x1c cmd/built-in.o
                0x0000000000071f24                _u_boot_list_2_cmd_2_load
 .u_boot_list_2_cmd_2_loadb
                0x0000000000071f40       0x1c cmd/built-in.o
                0x0000000000071f40                _u_boot_list_2_cmd_2_loadb
 .u_boot_list_2_cmd_2_loads
                0x0000000000071f5c       0x1c cmd/built-in.o
                0x0000000000071f5c                _u_boot_list_2_cmd_2_loads
 .u_boot_list_2_cmd_2_loadx
                0x0000000000071f78       0x1c cmd/built-in.o
                0x0000000000071f78                _u_boot_list_2_cmd_2_loadx
 .u_boot_list_2_cmd_2_loady
                0x0000000000071f94       0x1c cmd/built-in.o
                0x0000000000071f94                _u_boot_list_2_cmd_2_loady
 .u_boot_list_2_cmd_2_loop
                0x0000000000071fb0       0x1c cmd/built-in.o
                0x0000000000071fb0                _u_boot_list_2_cmd_2_loop
 .u_boot_list_2_cmd_2_ls
                0x0000000000071fcc       0x1c cmd/built-in.o
                0x0000000000071fcc                _u_boot_list_2_cmd_2_ls
 .u_boot_list_2_cmd_2_md
                0x0000000000071fe8       0x1c cmd/built-in.o
                0x0000000000071fe8                _u_boot_list_2_cmd_2_md
 .u_boot_list_2_cmd_2_mdio
                0x0000000000072004       0x1c cmd/built-in.o
                0x0000000000072004                _u_boot_list_2_cmd_2_mdio
 .u_boot_list_2_cmd_2_mii
                0x0000000000072020       0x1c cmd/built-in.o
                0x0000000000072020                _u_boot_list_2_cmd_2_mii
 .u_boot_list_2_cmd_2_mm
                0x000000000007203c       0x1c cmd/built-in.o
                0x000000000007203c                _u_boot_list_2_cmd_2_mm
 .u_boot_list_2_cmd_2_mmc
                0x0000000000072058       0x1c cmd/built-in.o
                0x0000000000072058                _u_boot_list_2_cmd_2_mmc
 .u_boot_list_2_cmd_2_mmcinfo
                0x0000000000072074       0x1c cmd/built-in.o
                0x0000000000072074                _u_boot_list_2_cmd_2_mmcinfo
 .u_boot_list_2_cmd_2_mw
                0x0000000000072090       0x1c cmd/built-in.o
                0x0000000000072090                _u_boot_list_2_cmd_2_mw
 .u_boot_list_2_cmd_2_nfs
                0x00000000000720ac       0x1c cmd/built-in.o
                0x00000000000720ac                _u_boot_list_2_cmd_2_nfs
 .u_boot_list_2_cmd_2_nm
                0x00000000000720c8       0x1c cmd/built-in.o
                0x00000000000720c8                _u_boot_list_2_cmd_2_nm
 .u_boot_list_2_cmd_2_part
                0x00000000000720e4       0x1c cmd/built-in.o
                0x00000000000720e4                _u_boot_list_2_cmd_2_part
 .u_boot_list_2_cmd_2_ping
                0x0000000000072100       0x1c cmd/built-in.o
                0x0000000000072100                _u_boot_list_2_cmd_2_ping
 .u_boot_list_2_cmd_2_pinmux
                0x000000000007211c       0x1c cmd/built-in.o
                0x000000000007211c                _u_boot_list_2_cmd_2_pinmux
 .u_boot_list_2_cmd_2_printenv
                0x0000000000072138       0x1c cmd/built-in.o
                0x0000000000072138                _u_boot_list_2_cmd_2_printenv
 .u_boot_list_2_cmd_2_pxe
                0x0000000000072154       0x1c cmd/built-in.o
                0x0000000000072154                _u_boot_list_2_cmd_2_pxe
 .u_boot_list_2_cmd_2_question_mark
                0x0000000000072170       0x1c cmd/built-in.o
                0x0000000000072170                _u_boot_list_2_cmd_2_question_mark
 .u_boot_list_2_cmd_2_reset
                0x000000000007218c       0x1c cmd/built-in.o
                0x000000000007218c                _u_boot_list_2_cmd_2_reset
 .u_boot_list_2_cmd_2_run
                0x00000000000721a8       0x1c cmd/built-in.o
                0x00000000000721a8                _u_boot_list_2_cmd_2_run
 .u_boot_list_2_cmd_2_save
                0x00000000000721c4       0x1c cmd/built-in.o
                0x00000000000721c4                _u_boot_list_2_cmd_2_save
 .u_boot_list_2_cmd_2_saveenv
                0x00000000000721e0       0x1c cmd/built-in.o
                0x00000000000721e0                _u_boot_list_2_cmd_2_saveenv
 .u_boot_list_2_cmd_2_setcurs
                0x00000000000721fc       0x1c drivers/built-in.o
                0x00000000000721fc                _u_boot_list_2_cmd_2_setcurs
 .u_boot_list_2_cmd_2_setenv
                0x0000000000072218       0x1c cmd/built-in.o
                0x0000000000072218                _u_boot_list_2_cmd_2_setenv
 .u_boot_list_2_cmd_2_setexpr
                0x0000000000072234       0x1c cmd/built-in.o
                0x0000000000072234                _u_boot_list_2_cmd_2_setexpr
 .u_boot_list_2_cmd_2_showvar
                0x0000000000072250       0x1c common/built-in.o
                0x0000000000072250                _u_boot_list_2_cmd_2_showvar
 .u_boot_list_2_cmd_2_size
                0x000000000007226c       0x1c cmd/built-in.o
                0x000000000007226c                _u_boot_list_2_cmd_2_size
 .u_boot_list_2_cmd_2_sleep
                0x0000000000072288       0x1c cmd/built-in.o
                0x0000000000072288                _u_boot_list_2_cmd_2_sleep
 .u_boot_list_2_cmd_2_source
                0x00000000000722a4       0x1c cmd/built-in.o
                0x00000000000722a4                _u_boot_list_2_cmd_2_source
 .u_boot_list_2_cmd_2_sysboot
                0x00000000000722c0       0x1c cmd/built-in.o
                0x00000000000722c0                _u_boot_list_2_cmd_2_sysboot
 .u_boot_list_2_cmd_2_test
                0x00000000000722dc       0x1c cmd/built-in.o
                0x00000000000722dc                _u_boot_list_2_cmd_2_test
 .u_boot_list_2_cmd_2_tftpboot
                0x00000000000722f8       0x1c cmd/built-in.o
                0x00000000000722f8                _u_boot_list_2_cmd_2_tftpboot
 .u_boot_list_2_cmd_2_true
                0x0000000000072314       0x1c cmd/built-in.o
                0x0000000000072314                _u_boot_list_2_cmd_2_true
 .u_boot_list_2_cmd_2_usb
                0x0000000000072330       0x1c cmd/built-in.o
                0x0000000000072330                _u_boot_list_2_cmd_2_usb
 .u_boot_list_2_cmd_2_usbboot
                0x000000000007234c       0x1c cmd/built-in.o
                0x000000000007234c                _u_boot_list_2_cmd_2_usbboot
 .u_boot_list_2_cmd_2_version
                0x0000000000072368       0x1c cmd/built-in.o
                0x0000000000072368                _u_boot_list_2_cmd_2_version
 .u_boot_list_2_cmd_3
                0x0000000000072384        0x0 cmd/built-in.o
 .u_boot_list_2_cmd_3
                0x0000000000072384        0x0 common/built-in.o
 .u_boot_list_2_driver_1
                0x0000000000072384        0x0 drivers/built-in.o
 .u_boot_list_2_driver_1
                0x0000000000072384        0x0 lib/built-in.o
 .u_boot_list_2_driver_2_bcm2835_sdhost
                0x0000000000072384       0x44 drivers/built-in.o
                0x0000000000072384                _u_boot_list_2_driver_2_bcm2835_sdhost
 .u_boot_list_2_driver_2_bcm2835_video
                0x00000000000723c8       0x44 drivers/built-in.o
                0x00000000000723c8                _u_boot_list_2_driver_2_bcm2835_video
 .u_boot_list_2_driver_2_bcm283x_pl011_uart
                0x000000000007240c       0x44 drivers/serial/built-in.o
                0x000000000007240c                _u_boot_list_2_driver_2_bcm283x_pl011_uart
 .u_boot_list_2_driver_2_efi_blk
                0x0000000000072450       0x44 lib/built-in.o
                0x0000000000072450                _u_boot_list_2_driver_2_efi_blk
 .u_boot_list_2_driver_2_efi_block
                0x0000000000072494       0x44 lib/built-in.o
                0x0000000000072494                _u_boot_list_2_driver_2_efi_block
 .u_boot_list_2_driver_2_gpio_bcm2835
                0x00000000000724d8       0x44 drivers/gpio/built-in.o
                0x00000000000724d8                _u_boot_list_2_driver_2_gpio_bcm2835
 .u_boot_list_2_driver_2_lan78xx_eth
                0x000000000007251c       0x44 drivers/usb/eth/built-in.o
                0x000000000007251c                _u_boot_list_2_driver_2_lan78xx_eth
 .u_boot_list_2_driver_2_mmc_blk
                0x0000000000072560       0x44 drivers/built-in.o
                0x0000000000072560                _u_boot_list_2_driver_2_mmc_blk
 .u_boot_list_2_driver_2_pinconfig_generic
                0x00000000000725a4       0x44 drivers/built-in.o
                0x00000000000725a4                _u_boot_list_2_driver_2_pinconfig_generic
 .u_boot_list_2_driver_2_pinctrl_bcm283x
                0x00000000000725e8       0x44 drivers/built-in.o
                0x00000000000725e8                _u_boot_list_2_driver_2_pinctrl_bcm283x
 .u_boot_list_2_driver_2_root_driver
                0x000000000007262c       0x44 drivers/built-in.o
                0x000000000007262c                _u_boot_list_2_driver_2_root_driver
 .u_boot_list_2_driver_2_sdhci_cdns
                0x0000000000072670       0x44 drivers/built-in.o
                0x0000000000072670                _u_boot_list_2_driver_2_sdhci_cdns
 .u_boot_list_2_driver_2_serial_bcm283x_mu
                0x00000000000726b4       0x44 drivers/serial/built-in.o
                0x00000000000726b4                _u_boot_list_2_driver_2_serial_bcm283x_mu
 .u_boot_list_2_driver_2_serial_pl01x
                0x00000000000726f8       0x44 drivers/serial/built-in.o
                0x00000000000726f8                _u_boot_list_2_driver_2_serial_pl01x
 .u_boot_list_2_driver_2_simple_bus_drv
                0x000000000007273c       0x44 drivers/built-in.o
                0x000000000007273c                _u_boot_list_2_driver_2_simple_bus_drv
 .u_boot_list_2_driver_2_simple_panel
                0x0000000000072780       0x44 drivers/built-in.o
                0x0000000000072780                _u_boot_list_2_driver_2_simple_panel
 .u_boot_list_2_driver_2_smsc95xx_eth
                0x00000000000727c4       0x44 drivers/usb/eth/built-in.o
                0x00000000000727c4                _u_boot_list_2_driver_2_smsc95xx_eth
 .u_boot_list_2_driver_2_usb_dev_generic_drv
                0x0000000000072808       0x44 drivers/usb/host/built-in.o
                0x0000000000072808                _u_boot_list_2_driver_2_usb_dev_generic_drv
 .u_boot_list_2_driver_2_usb_dwc2
                0x000000000007284c       0x44 drivers/usb/host/built-in.o
                0x000000000007284c                _u_boot_list_2_driver_2_usb_dwc2
 .u_boot_list_2_driver_2_usb_generic_hub
                0x0000000000072890       0x44 common/built-in.o
                0x0000000000072890                _u_boot_list_2_driver_2_usb_generic_hub
 .u_boot_list_2_driver_2_usb_kbd
                0x00000000000728d4       0x44 common/built-in.o
                0x00000000000728d4                _u_boot_list_2_driver_2_usb_kbd
 .u_boot_list_2_driver_2_usb_mass_storage
                0x0000000000072918       0x44 common/built-in.o
                0x0000000000072918                _u_boot_list_2_driver_2_usb_mass_storage
 .u_boot_list_2_driver_2_usb_storage_blk
                0x000000000007295c       0x44 common/built-in.o
                0x000000000007295c                _u_boot_list_2_driver_2_usb_storage_blk
 .u_boot_list_2_driver_2_vidconsole_normal
                0x00000000000729a0       0x44 drivers/built-in.o
                0x00000000000729a0                _u_boot_list_2_driver_2_vidconsole_normal
 .u_boot_list_2_driver_3
                0x00000000000729e4        0x0 drivers/built-in.o
 .u_boot_list_2_driver_3
                0x00000000000729e4        0x0 lib/built-in.o
 .u_boot_list_2_driver_info_1
                0x00000000000729e4        0x0 drivers/built-in.o
 .u_boot_list_2_driver_info_3
                0x00000000000729e4        0x0 drivers/built-in.o
 .u_boot_list_2_env_clbk_1
                0x00000000000729e4        0x0 env/built-in.o
 .u_boot_list_2_env_clbk_2_baudrate
                0x00000000000729e4        0x8 drivers/serial/built-in.o
                0x00000000000729e4                _u_boot_list_2_env_clbk_2_baudrate
 .u_boot_list_2_env_clbk_2_callbacks
                0x00000000000729ec        0x8 env/built-in.o
                0x00000000000729ec                _u_boot_list_2_env_clbk_2_callbacks
 .u_boot_list_2_env_clbk_2_console
                0x00000000000729f4        0x8 common/built-in.o
                0x00000000000729f4                _u_boot_list_2_env_clbk_2_console
 .u_boot_list_2_env_clbk_2_ethaddr
                0x00000000000729fc        0x8 net/built-in.o
                0x00000000000729fc                _u_boot_list_2_env_clbk_2_ethaddr
 .u_boot_list_2_env_clbk_2_flags
                0x0000000000072a04        0x8 env/built-in.o
                0x0000000000072a04                _u_boot_list_2_env_clbk_2_flags
 .u_boot_list_2_env_clbk_2_gatewayip
                0x0000000000072a0c        0x8 net/built-in.o
                0x0000000000072a0c                _u_boot_list_2_env_clbk_2_gatewayip
 .u_boot_list_2_env_clbk_2_ipaddr
                0x0000000000072a14        0x8 net/built-in.o
                0x0000000000072a14                _u_boot_list_2_env_clbk_2_ipaddr
 .u_boot_list_2_env_clbk_2_loadaddr
                0x0000000000072a1c        0x8 common/built-in.o
                0x0000000000072a1c                _u_boot_list_2_env_clbk_2_loadaddr
 .u_boot_list_2_env_clbk_2_netmask
                0x0000000000072a24        0x8 net/built-in.o
                0x0000000000072a24                _u_boot_list_2_env_clbk_2_netmask
 .u_boot_list_2_env_clbk_2_nvlan
                0x0000000000072a2c        0x8 net/built-in.o
                0x0000000000072a2c                _u_boot_list_2_env_clbk_2_nvlan
 .u_boot_list_2_env_clbk_2_serverip
                0x0000000000072a34        0x8 net/built-in.o
                0x0000000000072a34                _u_boot_list_2_env_clbk_2_serverip
 .u_boot_list_2_env_clbk_2_vlan
                0x0000000000072a3c        0x8 net/built-in.o
                0x0000000000072a3c                _u_boot_list_2_env_clbk_2_vlan
 .u_boot_list_2_env_clbk_3
                0x0000000000072a44        0x0 env/built-in.o
 .u_boot_list_2_env_driver_1
                0x0000000000072a44        0x0 env/built-in.o
 .u_boot_list_2_env_driver_2_fat
                0x0000000000072a44       0x18 env/built-in.o
                0x0000000000072a44                _u_boot_list_2_env_driver_2_fat
 .u_boot_list_2_env_driver_3
                0x0000000000072a5c        0x0 env/built-in.o
 .u_boot_list_2_part_driver_1
                0x0000000000072a5c        0x0 disk/built-in.o
 .u_boot_list_2_part_driver_2_a_efi
                0x0000000000072a5c       0x18 disk/built-in.o
                0x0000000000072a5c                _u_boot_list_2_part_driver_2_a_efi
 .u_boot_list_2_part_driver_2_dos
                0x0000000000072a74       0x18 disk/built-in.o
                0x0000000000072a74                _u_boot_list_2_part_driver_2_dos
 .u_boot_list_2_part_driver_2_iso
                0x0000000000072a8c       0x18 disk/built-in.o
                0x0000000000072a8c                _u_boot_list_2_part_driver_2_iso
 .u_boot_list_2_part_driver_3
                0x0000000000072aa4        0x0 disk/built-in.o
 .u_boot_list_2_uclass_1
                0x0000000000072aa4        0x0 drivers/built-in.o
 .u_boot_list_2_uclass_2_backlight
                0x0000000000072aa4       0x4c drivers/built-in.o
                0x0000000000072aa4                _u_boot_list_2_uclass_2_backlight
 .u_boot_list_2_uclass_2_blk
                0x0000000000072af0       0x4c drivers/built-in.o
                0x0000000000072af0                _u_boot_list_2_uclass_2_blk
 .u_boot_list_2_uclass_2_efi
                0x0000000000072b3c       0x4c lib/built-in.o
                0x0000000000072b3c                _u_boot_list_2_uclass_2_efi
 .u_boot_list_2_uclass_2_eth
                0x0000000000072b88       0x4c net/built-in.o
                0x0000000000072b88                _u_boot_list_2_uclass_2_eth
 .u_boot_list_2_uclass_2_gpio
                0x0000000000072bd4       0x4c drivers/gpio/built-in.o
                0x0000000000072bd4                _u_boot_list_2_uclass_2_gpio
 .u_boot_list_2_uclass_2_keyboard
                0x0000000000072c20       0x4c drivers/built-in.o
                0x0000000000072c20                _u_boot_list_2_uclass_2_keyboard
 .u_boot_list_2_uclass_2_mmc
                0x0000000000072c6c       0x4c drivers/built-in.o
                0x0000000000072c6c                _u_boot_list_2_uclass_2_mmc
 .u_boot_list_2_uclass_2_nop
                0x0000000000072cb8       0x4c drivers/built-in.o
                0x0000000000072cb8                _u_boot_list_2_uclass_2_nop
 .u_boot_list_2_uclass_2_panel
                0x0000000000072d04       0x4c drivers/built-in.o
                0x0000000000072d04                _u_boot_list_2_uclass_2_panel
 .u_boot_list_2_uclass_2_pinconfig
                0x0000000000072d50       0x4c drivers/built-in.o
                0x0000000000072d50                _u_boot_list_2_uclass_2_pinconfig
 .u_boot_list_2_uclass_2_pinctrl
                0x0000000000072d9c       0x4c drivers/built-in.o
                0x0000000000072d9c                _u_boot_list_2_uclass_2_pinctrl
 .u_boot_list_2_uclass_2_root
                0x0000000000072de8       0x4c drivers/built-in.o
                0x0000000000072de8                _u_boot_list_2_uclass_2_root
 .u_boot_list_2_uclass_2_serial
                0x0000000000072e34       0x4c drivers/serial/built-in.o
                0x0000000000072e34                _u_boot_list_2_uclass_2_serial
 .u_boot_list_2_uclass_2_simple_bus
                0x0000000000072e80       0x4c drivers/built-in.o
                0x0000000000072e80                _u_boot_list_2_uclass_2_simple_bus
 .u_boot_list_2_uclass_2_usb
                0x0000000000072ecc       0x4c drivers/usb/host/built-in.o
                0x0000000000072ecc                _u_boot_list_2_uclass_2_usb
 .u_boot_list_2_uclass_2_usb_dev_generic
                0x0000000000072f18       0x4c drivers/usb/host/built-in.o
                0x0000000000072f18                _u_boot_list_2_uclass_2_usb_dev_generic
 .u_boot_list_2_uclass_2_usb_hub
                0x0000000000072f64       0x4c common/built-in.o
                0x0000000000072f64                _u_boot_list_2_uclass_2_usb_hub
 .u_boot_list_2_uclass_2_usb_mass_storage
                0x0000000000072fb0       0x4c common/built-in.o
                0x0000000000072fb0                _u_boot_list_2_uclass_2_usb_mass_storage
 .u_boot_list_2_uclass_2_vidconsole
                0x0000000000072ffc       0x4c drivers/built-in.o
                0x0000000000072ffc                _u_boot_list_2_uclass_2_vidconsole
 .u_boot_list_2_uclass_2_video
                0x0000000000073048       0x4c drivers/built-in.o
                0x0000000000073048                _u_boot_list_2_uclass_2_video
 .u_boot_list_2_uclass_3
                0x0000000000073094        0x0 drivers/built-in.o
 .u_boot_list_2_usb_driver_entry_1
                0x0000000000073094        0x0 drivers/usb/host/built-in.o
 .u_boot_list_2_usb_driver_entry_2_lan78xx_eth
                0x0000000000073094        0x8 drivers/usb/eth/built-in.o
                0x0000000000073094                _u_boot_list_2_usb_driver_entry_2_lan78xx_eth
 .u_boot_list_2_usb_driver_entry_2_smsc95xx_eth
                0x000000000007309c        0x8 drivers/usb/eth/built-in.o
                0x000000000007309c                _u_boot_list_2_usb_driver_entry_2_smsc95xx_eth
 .u_boot_list_2_usb_driver_entry_2_usb_generic_hub
                0x00000000000730a4        0x8 common/built-in.o
                0x00000000000730a4                _u_boot_list_2_usb_driver_entry_2_usb_generic_hub
 .u_boot_list_2_usb_driver_entry_2_usb_kbd
                0x00000000000730ac        0x8 common/built-in.o
                0x00000000000730ac                _u_boot_list_2_usb_driver_entry_2_usb_kbd
 .u_boot_list_2_usb_driver_entry_2_usb_mass_storage
                0x00000000000730b4        0x8 common/built-in.o
                0x00000000000730b4                _u_boot_list_2_usb_driver_entry_2_usb_mass_storage
 .u_boot_list_2_usb_driver_entry_3
                0x00000000000730bc        0x0 drivers/usb/host/built-in.o
                0x00000000000730bc                . = ALIGN (0x4)

.efi_runtime_rel_start
                0x00000000000730bc        0x0
 *(.__efi_runtime_rel_start)
 .__efi_runtime_rel_start
                0x00000000000730bc        0x0 arch/arm/lib/built-in.o

.efi_runtime_rel
                0x00000000000730bc       0xa8
 *(.rel*.efi_runtime)
 .rel.text.efi_runtime
                0x00000000000730bc       0x18 arch/arm/cpu/armv7/start.o
 .rel.data.efi_runtime
                0x00000000000730d4       0x90 arch/arm/cpu/armv7/start.o
 *(.rel*.efi_runtime.*)

.efi_runtime_rel_stop
                0x0000000000073164        0x0
 *(.__efi_runtime_rel_stop)
 .__efi_runtime_rel_stop
                0x0000000000073164        0x0 arch/arm/lib/built-in.o
                0x0000000000073164                . = ALIGN (0x4)

.image_copy_end
                0x0000000000073164        0x0
 *(.__image_copy_end)
 .__image_copy_end
                0x0000000000073164        0x0 arch/arm/lib/built-in.o

.rel_dyn_start  0x0000000000073164        0x0
 *(.__rel_dyn_start)
 .__rel_dyn_start
                0x0000000000073164        0x0 arch/arm/lib/built-in.o

.rel.dyn        0x0000000000073164     0xb460
 *(.rel*)
 .rel.got       0x0000000000073164        0x0 arch/arm/cpu/armv7/start.o
 .rel.plt       0x0000000000073164        0x0 arch/arm/cpu/armv7/start.o
 .rel.bss       0x0000000000073164        0x0 arch/arm/cpu/armv7/start.o
 .rel.data.rel.ro
                0x0000000000073164        0x0 arch/arm/cpu/armv7/start.o
 .rel.iplt      0x0000000000073164        0x0 arch/arm/cpu/armv7/start.o
 .rel.text      0x0000000000073164       0x28 arch/arm/cpu/armv7/start.o
 .rel.vectors   0x000000000007318c       0x38 arch/arm/cpu/armv7/start.o
 .rel.text.relocate_vectors
                0x00000000000731c4       0x20 arch/arm/cpu/armv7/start.o
 .rel.text.setup_initrd_tag.isra.0
                0x00000000000731e4        0x8 arch/arm/cpu/armv7/start.o
 .rel.text.boot_jump_linux
                0x00000000000731ec       0x28 arch/arm/cpu/armv7/start.o
 .rel.text.boot_prep_linux
                0x0000000000073214       0x18 arch/arm/cpu/armv7/start.o
 .rel.text.boot_prep_vxworks
                0x000000000007322c       0x10 arch/arm/cpu/armv7/start.o
 .rel.text.bootz_setup
                0x000000000007323c       0x10 arch/arm/cpu/armv7/start.o
 .rel.text.interrupt_init
                0x000000000007324c        0x8 arch/arm/cpu/armv7/start.o
 .rel.text.bad_mode
                0x0000000000073254        0x8 arch/arm/cpu/armv7/start.o
 .rel.text.show_regs
                0x000000000007325c       0x80 arch/arm/cpu/armv7/start.o
 .rel.text.do_undefined_instruction
                0x00000000000732dc        0x8 arch/arm/cpu/armv7/start.o
 .rel.text.do_software_interrupt
                0x00000000000732e4        0x8 arch/arm/cpu/armv7/start.o
 .rel.text.do_prefetch_abort
                0x00000000000732ec        0x8 arch/arm/cpu/armv7/start.o
 .rel.text.do_data_abort
                0x00000000000732f4        0x8 arch/arm/cpu/armv7/start.o
 .rel.text.do_not_used
                0x00000000000732fc        0x8 arch/arm/cpu/armv7/start.o
 .rel.text.do_fiq
                0x0000000000073304        0x8 arch/arm/cpu/armv7/start.o
 .rel.text.do_irq
                0x000000000007330c        0x8 arch/arm/cpu/armv7/start.o
 .rel.text.do_reset
                0x0000000000073314        0x8 arch/arm/cpu/armv7/start.o
 .rel.text.check_cache_range
                0x000000000007331c        0x8 arch/arm/cpu/armv7/start.o
 .rel.rodata    0x0000000000073324      0x118 arch/arm/cpu/armv7/start.o
 .rel.text.mach_cpu_init
                0x000000000007343c       0x10 arch/arm/cpu/armv7/start.o
 .rel.text.reset_cpu
                0x000000000007344c       0x28 arch/arm/cpu/armv7/start.o
 .rel.text.efi_reset_system_init
                0x0000000000073474       0x30 arch/arm/cpu/armv7/start.o
 .rel.text.bcm2835_mbox_call_raw
                0x00000000000734a4       0x50 arch/arm/cpu/armv7/start.o
 .rel.text.bcm2835_mbox_call_prop
                0x00000000000734f4       0x18 arch/arm/cpu/armv7/start.o
 .rel.text.bcm2835_power_on_module
                0x000000000007350c        0x8 arch/arm/cpu/armv7/start.o
 .rel.text.bcm2835_get_mmc_clock
                0x0000000000073514        0x8 arch/arm/cpu/armv7/start.o
 .rel.text.bcm2835_get_video_size
                0x000000000007351c        0x8 arch/arm/cpu/armv7/start.o
 .rel.text.bcm2835_set_video_params
                0x0000000000073524        0x8 arch/arm/cpu/armv7/start.o
 .rel.text.dram_init
                0x000000000007352c        0x8 arch/arm/cpu/armv7/start.o
 .rel.text.board_get_usable_ram_top
                0x0000000000073534        0x8 arch/arm/cpu/armv7/start.o
 .rel.text.misc_init_r
                0x000000000007353c       0x98 arch/arm/cpu/armv7/start.o
 .rel.text.board_init
                0x00000000000735d4       0x58 arch/arm/cpu/armv7/start.o
 .rel.rodata.rpi_model_unknown
                0x000000000007362c       0x10 arch/arm/cpu/armv7/start.o
 .rel.rodata.rpi_models_new_scheme
                0x000000000007363c       0xe0 arch/arm/cpu/armv7/start.o
 .rel.rodata.rpi_models_old_scheme
                0x000000000007371c      0x110 arch/arm/cpu/armv7/start.o
 .rel.text.do_go
                0x000000000007382c       0x10 arch/arm/cpu/armv7/start.o
 .rel.text.do_bootm
                0x000000000007383c       0x18 arch/arm/cpu/armv7/start.o
 .rel.text.do_bootd
                0x0000000000073854        0x8 arch/arm/cpu/armv7/start.o
 .rel.text.image_info
                0x000000000007385c       0x40 arch/arm/cpu/armv7/start.o
 .rel.text.do_iminfo
                0x000000000007389c        0x8 arch/arm/cpu/armv7/start.o
 .rel.text.bootm_maybe_autostart
                0x00000000000738a4       0x20 arch/arm/cpu/armv7/start.o
 .rel.text.do_help
                0x00000000000738c4       0x10 arch/arm/cpu/armv7/start.o
 .rel.text.do_version
                0x00000000000738d4       0x10 arch/arm/cpu/armv7/start.o
 .rel.text.blk_common_cmd
                0x00000000000738e4       0x78 arch/arm/cpu/armv7/start.o
 .rel.text.image_source_script
                0x000000000007395c       0x38 arch/arm/cpu/armv7/start.o
 .rel.text.do_source
                0x0000000000073994        0x8 arch/arm/cpu/armv7/start.o
 .rel.text.print_num
                0x000000000007399c        0x8 arch/arm/cpu/armv7/start.o
 .rel.text.do_bdinfo
                0x00000000000739a4       0x70 arch/arm/cpu/armv7/start.o
 .rel.text.do_blkcache
                0x0000000000073a14        0x8 arch/arm/cpu/armv7/start.o
 .rel.text.blkc_configure
                0x0000000000073a1c        0x8 arch/arm/cpu/armv7/start.o
 .rel.text.blkc_show
                0x0000000000073a24        0x8 arch/arm/cpu/armv7/start.o
 .rel.text.efi_reserve_memory
                0x0000000000073a2c        0x8 arch/arm/cpu/armv7/start.o
 .rel.text.do_bootefi_exec
                0x0000000000073a34       0x38 arch/arm/cpu/armv7/start.o
 .rel.text.efi_install_fdt
                0x0000000000073a6c       0x68 arch/arm/cpu/armv7/start.o
 .rel.text.efi_run_image
                0x0000000000073ad4       0x20 arch/arm/cpu/armv7/start.o
 .rel.text.do_bootefi
                0x0000000000073af4       0x20 arch/arm/cpu/armv7/start.o
 .rel.text.efi_set_bootdev
                0x0000000000073b14       0x10 arch/arm/cpu/armv7/start.o
 .rel.text.do_bootz
                0x0000000000073b24       0x18 arch/arm/cpu/armv7/start.o
 .rel.text.do_coninfo
                0x0000000000073b3c       0x30 arch/arm/cpu/armv7/start.o
 .rel.text.do_dm
                0x0000000000073b6c        0x8 arch/arm/cpu/armv7/start.o
 .rel.text.do_echo
                0x0000000000073b74        0x8 arch/arm/cpu/armv7/start.o
 .rel.text.do_bootelf
                0x0000000000073b7c       0x28 arch/arm/cpu/armv7/start.o
 .rel.text.do_bootvx
                0x0000000000073ba4       0xe0 arch/arm/cpu/armv7/start.o
 .rel.text.do_fat_fsinfo
                0x0000000000073c84       0x10 arch/arm/cpu/armv7/start.o
 .rel.text.do_fat_fswrite
                0x0000000000073c94       0x18 arch/arm/cpu/armv7/start.o
 .rel.text.fdt_valid
                0x0000000000073cac       0x28 arch/arm/cpu/armv7/start.o
 .rel.text.is_printable_string
                0x0000000000073cd4        0x8 arch/arm/cpu/armv7/start.o
 .rel.text.print_data
                0x0000000000073cdc       0x58 arch/arm/cpu/armv7/start.o
 .rel.text.set_working_fdt_addr
                0x0000000000073d34       0x10 arch/arm/cpu/armv7/start.o
 .rel.text.do_fdt
                0x0000000000073d44      0x280 arch/arm/cpu/armv7/start.o
 .rel.text.gpio_get_description
                0x0000000000073fc4       0x18 arch/arm/cpu/armv7/start.o
 .rel.text.do_gpio
                0x0000000000073fdc       0x50 arch/arm/cpu/armv7/start.o
 .rel.text.binary_test
                0x000000000007402c       0x78 arch/arm/cpu/armv7/start.o
 .rel.text.do_itest
                0x00000000000740a4        0x8 arch/arm/cpu/armv7/start.o
 .rel.text.bin_data_init
                0x00000000000740ac       0x18 arch/arm/cpu/armv7/start.o
 .rel.text.k_data_save
                0x00000000000740c4       0x30 arch/arm/cpu/armv7/start.o
 .rel.text.k_data_restore
                0x00000000000740f4       0x30 arch/arm/cpu/armv7/start.o
 .rel.text.load_serial_ymodem
                0x0000000000074124       0x20 arch/arm/cpu/armv7/start.o
 .rel.text.bin_data_char
                0x0000000000074144       0x10 arch/arm/cpu/armv7/start.o
 .rel.text.chk1.constprop.0
                0x0000000000074154        0x8 arch/arm/cpu/armv7/start.o
 .rel.text.s1_sendpacket.constprop.0
                0x000000000007415c       0x18 arch/arm/cpu/armv7/start.o
 .rel.text.load_serial
                0x0000000000074174       0x20 arch/arm/cpu/armv7/start.o
 .rel.text.do_load_serial
                0x0000000000074194       0x30 arch/arm/cpu/armv7/start.o
 .rel.text.do_load_serial_bin
                0x00000000000741c4       0xe8 arch/arm/cpu/armv7/start.o
 .rel.text.do_mem_md
                0x00000000000742ac       0x20 arch/arm/cpu/armv7/start.o
 .rel.text.do_mem_base
                0x00000000000742cc       0x10 arch/arm/cpu/armv7/start.o
 .rel.text.do_mem_crc
                0x00000000000742dc        0x8 arch/arm/cpu/armv7/start.o
 .rel.text.do_mem_mw
                0x00000000000742e4        0x8 arch/arm/cpu/armv7/start.o
 .rel.text.do_mem_cmp
                0x00000000000742ec       0x38 arch/arm/cpu/armv7/start.o
 .rel.text.mod_mem.isra.0.part.0
                0x0000000000074324       0x48 arch/arm/cpu/armv7/start.o
 .rel.text.do_mem_cp
                0x000000000007436c       0x10 arch/arm/cpu/armv7/start.o
 .rel.text.dump_field
                0x000000000007437c       0x18 arch/arm/cpu/armv7/start.o
 .rel.text.do_mii
                0x0000000000074394      0x138 arch/arm/cpu/armv7/start.o
 .rel.text.do_mdio
                0x00000000000744cc       0x78 arch/arm/cpu/armv7/start.o
 .rel.text.do_mmcops
                0x0000000000074544       0x20 arch/arm/cpu/armv7/start.o
 .rel.text.init_mmc_device
                0x0000000000074564        0x8 arch/arm/cpu/armv7/start.o
 .rel.text.do_mmc_rescan
                0x000000000007456c        0x8 arch/arm/cpu/armv7/start.o
 .rel.text.do_mmc_hwpartition
                0x0000000000074574       0xb0 arch/arm/cpu/armv7/start.o
 .rel.text.do_mmc_dev
                0x0000000000074624       0x38 arch/arm/cpu/armv7/start.o
 .rel.text.do_mmc_boot_wp
                0x000000000007465c       0x18 arch/arm/cpu/armv7/start.o
 .rel.text.print_mmcinfo
                0x0000000000074674      0x128 arch/arm/cpu/armv7/start.o
 .rel.text.do_mmcinfo
                0x000000000007479c       0x10 arch/arm/cpu/armv7/start.o
 .rel.text.do_mmc_setdsr
                0x00000000000747ac       0x28 arch/arm/cpu/armv7/start.o
 .rel.text.do_mmc_part
                0x00000000000747d4       0x10 arch/arm/cpu/armv7/start.o
 .rel.text.do_mmc_erase
                0x00000000000747e4       0x30 arch/arm/cpu/armv7/start.o
 .rel.text.do_mmc_write
                0x0000000000074814       0x30 arch/arm/cpu/armv7/start.o
 .rel.text.do_mmc_read
                0x0000000000074844       0x28 arch/arm/cpu/armv7/start.o
 .rel.text.netboot_common
                0x000000000007486c       0xa8 arch/arm/cpu/armv7/start.o
 .rel.text.do_ping
                0x0000000000074914       0x18 arch/arm/cpu/armv7/start.o
 .rel.text.do_part_list
                0x000000000007492c       0x28 arch/arm/cpu/armv7/start.o
 .rel.text.do_part_info
                0x0000000000074954       0x18 arch/arm/cpu/armv7/start.o
 .rel.text.do_part
                0x000000000007496c       0x30 arch/arm/cpu/armv7/start.o
 .rel.text.do_pinmux
                0x000000000007499c        0x8 arch/arm/cpu/armv7/start.o
 .rel.text.do_list
                0x00000000000749a4       0x20 arch/arm/cpu/armv7/start.o
 .rel.text.show_pinmux
                0x00000000000749c4       0x20 arch/arm/cpu/armv7/start.o
 .rel.text.do_status
                0x00000000000749e4       0x28 arch/arm/cpu/armv7/start.o
 .rel.text.do_dev
                0x0000000000074a0c       0x20 arch/arm/cpu/armv7/start.o
 .rel.text.do_pxe
                0x0000000000074a2c       0x10 arch/arm/cpu/armv7/start.o
 .rel.text.do_pxe_boot
                0x0000000000074a3c       0x38 arch/arm/cpu/armv7/start.o
 .rel.text.do_get_tftp
                0x0000000000074a74        0x8 arch/arm/cpu/armv7/start.o
 .rel.text.do_pxe_get
                0x0000000000074a7c       0x48 arch/arm/cpu/armv7/start.o
 .rel.text.label_print
                0x0000000000074ac4        0x8 arch/arm/cpu/armv7/start.o
 .rel.text.get_string
                0x0000000000074acc        0x8 arch/arm/cpu/armv7/start.o
 .rel.text.get_token
                0x0000000000074ad4        0x8 arch/arm/cpu/armv7/start.o
 .rel.text.parse_sliteral
                0x0000000000074adc        0x8 arch/arm/cpu/armv7/start.o
 .rel.text.parse_integer
                0x0000000000074ae4        0x8 arch/arm/cpu/armv7/start.o
 .rel.text.get_relfile
                0x0000000000074aec       0x38 arch/arm/cpu/armv7/start.o
 .rel.text.format_mac_pxe
                0x0000000000074b24       0x18 arch/arm/cpu/armv7/start.o
 .rel.text.label_boot
                0x0000000000074b3c      0x108 arch/arm/cpu/armv7/start.o
 .rel.text.get_pxe_file
                0x0000000000074c44        0x8 arch/arm/cpu/armv7/start.o
 .rel.text.handle_include
                0x0000000000074c4c       0x10 arch/arm/cpu/armv7/start.o
 .rel.text.parse_pxefile_top
                0x0000000000074c5c      0x158 arch/arm/cpu/armv7/start.o
 .rel.text.get_pxelinux_path
                0x0000000000074db4       0x18 arch/arm/cpu/armv7/start.o
 .rel.text.handle_pxe_menu
                0x0000000000074dcc       0x18 arch/arm/cpu/armv7/start.o
 .rel.text.substitute
                0x0000000000074de4        0x8 arch/arm/cpu/armv7/start.o
 .rel.text.regex_sub.part.0
                0x0000000000074dec       0x30 arch/arm/cpu/armv7/start.o
 .rel.text.do_setexpr
                0x0000000000074e1c       0x70 arch/arm/cpu/armv7/start.o
 .rel.text.do_sysboot
                0x0000000000074e8c       0x80 arch/arm/cpu/armv7/start.o
 .rel.text.do_get_any
                0x0000000000074f0c       0x10 arch/arm/cpu/armv7/start.o
 .rel.text.do_get_fat
                0x0000000000074f1c       0x10 arch/arm/cpu/armv7/start.o
 .rel.text.do_get_ext2
                0x0000000000074f2c       0x10 arch/arm/cpu/armv7/start.o
 .rel.text.do_test
                0x0000000000074f3c       0x70 arch/arm/cpu/armv7/start.o
 .rel.text.usb_get_class_desc
                0x0000000000074fac       0xa8 arch/arm/cpu/armv7/start.o
 .rel.text.usb_display_class_sub
                0x0000000000075054       0xc8 arch/arm/cpu/armv7/start.o
 .rel.text.usb_display_desc
                0x000000000007511c       0x38 arch/arm/cpu/armv7/start.o
 .rel.text.usb_show_tree_graph
                0x0000000000075154       0x48 arch/arm/cpu/armv7/start.o
 .rel.text.usb_display_string
                0x000000000007519c        0x8 arch/arm/cpu/armv7/start.o
 .rel.text.usb_display_config
                0x00000000000751a4       0xa8 arch/arm/cpu/armv7/start.o
 .rel.text.do_usbboot
                0x000000000007524c        0x8 arch/arm/cpu/armv7/start.o
 .rel.text.do_usb_start
                0x0000000000075254        0x8 arch/arm/cpu/armv7/start.o
 .rel.text.usb_show_tree
                0x000000000007525c        0x8 arch/arm/cpu/armv7/start.o
 .rel.text.do_usb
                0x0000000000075264      0x160 arch/arm/cpu/armv7/start.o
 .rel.text.common_diskboot
                0x00000000000753c4       0x28 arch/arm/cpu/armv7/start.o
 .rel.text.do_imgextract
                0x00000000000753ec       0x90 arch/arm/cpu/armv7/start.o
 .rel.text.do_env_delete
                0x000000000007547c       0x10 arch/arm/cpu/armv7/start.o
 .rel.text.do_env
                0x000000000007548c        0x8 arch/arm/cpu/armv7/start.o
 .rel.text.env_print
                0x0000000000075494       0x18 arch/arm/cpu/armv7/start.o
 .rel.text.do_env_print
                0x00000000000754ac       0x10 arch/arm/cpu/armv7/start.o
 .rel.text.do_env_import
                0x00000000000754bc       0x50 arch/arm/cpu/armv7/start.o
 .rel.text.do_env_default
                0x000000000007550c        0x8 arch/arm/cpu/armv7/start.o
 .rel.text.do_env_exists
                0x0000000000075514        0x8 arch/arm/cpu/armv7/start.o
 .rel.text._do_env_set.isra.0
                0x000000000007551c       0x30 arch/arm/cpu/armv7/start.o
 .rel.text.env_get_id
                0x000000000007554c        0x8 arch/arm/cpu/armv7/start.o
 .rel.text.env_set
                0x0000000000075554        0x8 arch/arm/cpu/armv7/start.o
 .rel.text.env_set_hex
                0x000000000007555c        0x8 arch/arm/cpu/armv7/start.o
 .rel.text.do_env_export
                0x0000000000075564       0x30 arch/arm/cpu/armv7/start.o
 .rel.text.env_get_f
                0x0000000000075594        0x8 arch/arm/cpu/armv7/start.o
 .rel.text.env_get
                0x000000000007559c        0x8 arch/arm/cpu/armv7/start.o
 .rel.text.eth_env_set_enetaddr
                0x00000000000755a4        0x8 arch/arm/cpu/armv7/start.o
 .rel.text.from_env
                0x00000000000755ac        0x8 arch/arm/cpu/armv7/start.o
 .rel.text.do_env_edit.part.0
                0x00000000000755b4       0x18 arch/arm/cpu/armv7/start.o
 .rel.rodata.fdt_member_table
                0x00000000000755cc       0x50 arch/arm/cpu/armv7/start.o
 .rel.rodata.op_table
                0x000000000007561c       0x68 arch/arm/cpu/armv7/start.o
 .rel.rodata.mii_reg_desc_tbl
                0x0000000000075684       0x80 arch/arm/cpu/armv7/start.o
 .rel.rodata.reg_0_desc_tbl
                0x0000000000075704       0x50 arch/arm/cpu/armv7/start.o
 .rel.rodata.reg_10_desc_tbl
                0x0000000000075754       0x40 arch/arm/cpu/armv7/start.o
 .rel.rodata.reg_1_desc_tbl
                0x0000000000075794       0x80 arch/arm/cpu/armv7/start.o
 .rel.rodata.reg_2_desc_tbl
                0x0000000000075814        0x8 arch/arm/cpu/armv7/start.o
 .rel.rodata.reg_3_desc_tbl
                0x000000000007581c       0x18 arch/arm/cpu/armv7/start.o
 .rel.rodata.reg_4_desc_tbl
                0x0000000000075834       0x60 arch/arm/cpu/armv7/start.o
 .rel.rodata.reg_5_desc_tbl
                0x0000000000075894       0x60 arch/arm/cpu/armv7/start.o
 .rel.rodata.reg_9_desc_tbl
                0x00000000000758f4       0x40 arch/arm/cpu/armv7/start.o
 .rel.rodata.keywords
                0x0000000000075934       0x98 arch/arm/cpu/armv7/start.o
 .rel.rodata.op_adv
                0x00000000000759cc       0x80 arch/arm/cpu/armv7/start.o
 .rel.rodata.CSWTCH.45
                0x0000000000075a4c       0x28 arch/arm/cpu/armv7/start.o
 .rel.u_boot_list_2_cmd_2_go
                0x0000000000075a74       0x28 arch/arm/cpu/armv7/start.o
 .rel.u_boot_list_2_cmd_2_reset
                0x0000000000075a9c       0x28 arch/arm/cpu/armv7/start.o
 .rel.data.cmd_bootm_sub
                0x0000000000075ac4      0x120 arch/arm/cpu/armv7/start.o
 .rel.u_boot_list_2_cmd_2_boot
                0x0000000000075be4       0x28 arch/arm/cpu/armv7/start.o
 .rel.u_boot_list_2_cmd_2_bootd
                0x0000000000075c0c       0x28 arch/arm/cpu/armv7/start.o
 .rel.u_boot_list_2_cmd_2_bootm
                0x0000000000075c34       0x28 arch/arm/cpu/armv7/start.o
 .rel.u_boot_list_2_cmd_2_iminfo
                0x0000000000075c5c       0x28 arch/arm/cpu/armv7/start.o
 .rel.u_boot_list_2_cmd_2_help
                0x0000000000075c84       0x28 arch/arm/cpu/armv7/start.o
 .rel.u_boot_list_2_cmd_2_question_mark
                0x0000000000075cac       0x28 arch/arm/cpu/armv7/start.o
 .rel.u_boot_list_2_cmd_2_version
                0x0000000000075cd4       0x28 arch/arm/cpu/armv7/start.o
 .rel.u_boot_list_2_cmd_2_source
                0x0000000000075cfc       0x28 arch/arm/cpu/armv7/start.o
 .rel.u_boot_list_2_cmd_2_bdinfo
                0x0000000000075d24       0x28 arch/arm/cpu/armv7/start.o
 .rel.data.cmd_blkc_sub
                0x0000000000075d4c       0x50 arch/arm/cpu/armv7/start.o
 .rel.u_boot_list_2_cmd_2_blkcache
                0x0000000000075d9c       0x28 arch/arm/cpu/armv7/start.o
 .rel.u_boot_list_2_cmd_2_bootefi
                0x0000000000075dc4       0x28 arch/arm/cpu/armv7/start.o
 .rel.u_boot_list_2_cmd_2_bootz
                0x0000000000075dec       0x28 arch/arm/cpu/armv7/start.o
 .rel.u_boot_list_2_cmd_2_coninfo
                0x0000000000075e14       0x28 arch/arm/cpu/armv7/start.o
 .rel.data.test_commands
                0x0000000000075e3c       0xa0 arch/arm/cpu/armv7/start.o
 .rel.u_boot_list_2_cmd_2_dm
                0x0000000000075edc       0x28 arch/arm/cpu/armv7/start.o
 .rel.u_boot_list_2_cmd_2_echo
                0x0000000000075f04       0x28 arch/arm/cpu/armv7/start.o
 .rel.u_boot_list_2_cmd_2_bootelf
                0x0000000000075f2c       0x28 arch/arm/cpu/armv7/start.o
 .rel.u_boot_list_2_cmd_2_bootvx
                0x0000000000075f54       0x28 arch/arm/cpu/armv7/start.o
 .rel.u_boot_list_2_cmd_2_exit
                0x0000000000075f7c       0x28 arch/arm/cpu/armv7/start.o
 .rel.u_boot_list_2_cmd_2_ext4load
                0x0000000000075fa4       0x28 arch/arm/cpu/armv7/start.o
 .rel.u_boot_list_2_cmd_2_ext4ls
                0x0000000000075fcc       0x28 arch/arm/cpu/armv7/start.o
 .rel.u_boot_list_2_cmd_2_ext4size
                0x0000000000075ff4       0x28 arch/arm/cpu/armv7/start.o
 .rel.u_boot_list_2_cmd_2_ext2load
                0x000000000007601c       0x28 arch/arm/cpu/armv7/start.o
 .rel.u_boot_list_2_cmd_2_ext2ls
                0x0000000000076044       0x28 arch/arm/cpu/armv7/start.o
 .rel.u_boot_list_2_cmd_2_fatinfo
                0x000000000007606c       0x28 arch/arm/cpu/armv7/start.o
 .rel.u_boot_list_2_cmd_2_fatload
                0x0000000000076094       0x28 arch/arm/cpu/armv7/start.o
 .rel.u_boot_list_2_cmd_2_fatls
                0x00000000000760bc       0x28 arch/arm/cpu/armv7/start.o
 .rel.u_boot_list_2_cmd_2_fatmkdir
                0x00000000000760e4       0x28 arch/arm/cpu/armv7/start.o
 .rel.u_boot_list_2_cmd_2_fatrm
                0x000000000007610c       0x28 arch/arm/cpu/armv7/start.o
 .rel.u_boot_list_2_cmd_2_fatsize
                0x0000000000076134       0x28 arch/arm/cpu/armv7/start.o
 .rel.u_boot_list_2_cmd_2_fatwrite
                0x000000000007615c       0x28 arch/arm/cpu/armv7/start.o
 .rel.u_boot_list_2_cmd_2_fdt
                0x0000000000076184       0x28 arch/arm/cpu/armv7/start.o
 .rel.u_boot_list_2_cmd_2_fstype
                0x00000000000761ac       0x28 arch/arm/cpu/armv7/start.o
 .rel.u_boot_list_2_cmd_2_ln
                0x00000000000761d4       0x28 arch/arm/cpu/armv7/start.o
 .rel.u_boot_list_2_cmd_2_load
                0x00000000000761fc       0x28 arch/arm/cpu/armv7/start.o
 .rel.u_boot_list_2_cmd_2_ls
                0x0000000000076224       0x28 arch/arm/cpu/armv7/start.o
 .rel.u_boot_list_2_cmd_2_save
                0x000000000007624c       0x28 arch/arm/cpu/armv7/start.o
 .rel.u_boot_list_2_cmd_2_size
                0x0000000000076274       0x28 arch/arm/cpu/armv7/start.o
 .rel.u_boot_list_2_cmd_2_gpio
                0x000000000007629c       0x28 arch/arm/cpu/armv7/start.o
 .rel.u_boot_list_2_cmd_2_itest
                0x00000000000762c4       0x28 arch/arm/cpu/armv7/start.o
 .rel.u_boot_list_2_cmd_2_loadb
                0x00000000000762ec       0x28 arch/arm/cpu/armv7/start.o
 .rel.u_boot_list_2_cmd_2_loads
                0x0000000000076314       0x28 arch/arm/cpu/armv7/start.o
 .rel.u_boot_list_2_cmd_2_loadx
                0x000000000007633c       0x28 arch/arm/cpu/armv7/start.o
 .rel.u_boot_list_2_cmd_2_loady
                0x0000000000076364       0x28 arch/arm/cpu/armv7/start.o
 .rel.u_boot_list_2_cmd_2_base
                0x000000000007638c       0x28 arch/arm/cpu/armv7/start.o
 .rel.u_boot_list_2_cmd_2_cmp
                0x00000000000763b4       0x28 arch/arm/cpu/armv7/start.o
 .rel.u_boot_list_2_cmd_2_cp
                0x00000000000763dc       0x28 arch/arm/cpu/armv7/start.o
 .rel.u_boot_list_2_cmd_2_crc32
                0x0000000000076404       0x28 arch/arm/cpu/armv7/start.o
 .rel.u_boot_list_2_cmd_2_loop
                0x000000000007642c       0x28 arch/arm/cpu/armv7/start.o
 .rel.u_boot_list_2_cmd_2_md
                0x0000000000076454       0x28 arch/arm/cpu/armv7/start.o
 .rel.u_boot_list_2_cmd_2_mm
                0x000000000007647c       0x28 arch/arm/cpu/armv7/start.o
 .rel.u_boot_list_2_cmd_2_mw
                0x00000000000764a4       0x28 arch/arm/cpu/armv7/start.o
 .rel.u_boot_list_2_cmd_2_nm
                0x00000000000764cc       0x28 arch/arm/cpu/armv7/start.o
 .rel.u_boot_list_2_cmd_2_mii
                0x00000000000764f4       0x28 arch/arm/cpu/armv7/start.o
 .rel.u_boot_list_2_cmd_2_mdio
                0x000000000007651c       0x28 arch/arm/cpu/armv7/start.o
 .rel.u_boot_list_2_cmd_2_sleep
                0x0000000000076544       0x28 arch/arm/cpu/armv7/start.o
 .rel.data.cmd_mmc
                0x000000000007656c      0x1b8 arch/arm/cpu/armv7/start.o
 .rel.u_boot_list_2_cmd_2_mmc
                0x0000000000076724       0x28 arch/arm/cpu/armv7/start.o
 .rel.u_boot_list_2_cmd_2_mmcinfo
                0x000000000007674c       0x28 arch/arm/cpu/armv7/start.o
 .rel.u_boot_list_2_cmd_2_bootp
                0x0000000000076774       0x28 arch/arm/cpu/armv7/start.o
 .rel.u_boot_list_2_cmd_2_dhcp
                0x000000000007679c       0x28 arch/arm/cpu/armv7/start.o
 .rel.u_boot_list_2_cmd_2_nfs
                0x00000000000767c4       0x28 arch/arm/cpu/armv7/start.o
 .rel.u_boot_list_2_cmd_2_ping
                0x00000000000767ec       0x28 arch/arm/cpu/armv7/start.o
 .rel.u_boot_list_2_cmd_2_tftpboot
                0x0000000000076814       0x28 arch/arm/cpu/armv7/start.o
 .rel.u_boot_list_2_cmd_2_part
                0x000000000007683c       0x28 arch/arm/cpu/armv7/start.o
 .rel.data.pinmux_subcmd
                0x0000000000076864       0x78 arch/arm/cpu/armv7/start.o
 .rel.u_boot_list_2_cmd_2_pinmux
                0x00000000000768dc       0x28 arch/arm/cpu/armv7/start.o
 .rel.data.cmd_pxe_sub
                0x0000000000076904       0x50 arch/arm/cpu/armv7/start.o
 .rel.data.pxe_default_paths
                0x0000000000076954       0x20 arch/arm/cpu/armv7/start.o
 .rel.u_boot_list_2_cmd_2_pxe
                0x0000000000076974       0x28 arch/arm/cpu/armv7/start.o
 .rel.u_boot_list_2_cmd_2_setexpr
                0x000000000007699c       0x28 arch/arm/cpu/armv7/start.o
 .rel.u_boot_list_2_cmd_2_sysboot
                0x00000000000769c4       0x28 arch/arm/cpu/armv7/start.o
 .rel.u_boot_list_2_cmd_2_false
                0x00000000000769ec       0x20 arch/arm/cpu/armv7/start.o
 .rel.u_boot_list_2_cmd_2_test
                0x0000000000076a0c       0x28 arch/arm/cpu/armv7/start.o
 .rel.u_boot_list_2_cmd_2_true
                0x0000000000076a34       0x20 arch/arm/cpu/armv7/start.o
 .rel.u_boot_list_2_cmd_2_usb
                0x0000000000076a54       0x28 arch/arm/cpu/armv7/start.o
 .rel.u_boot_list_2_cmd_2_usbboot
                0x0000000000076a7c       0x28 arch/arm/cpu/armv7/start.o
 .rel.u_boot_list_2_cmd_2_fsuuid
                0x0000000000076aa4       0x28 arch/arm/cpu/armv7/start.o
 .rel.u_boot_list_2_cmd_2_imxtract
                0x0000000000076acc       0x28 arch/arm/cpu/armv7/start.o
 .rel.data.cmd_env_sub
                0x0000000000076af4      0x190 arch/arm/cpu/armv7/start.o
 .rel.u_boot_list_2_cmd_2_editenv
                0x0000000000076c84       0x30 arch/arm/cpu/armv7/start.o
 .rel.u_boot_list_2_cmd_2_env
                0x0000000000076cb4       0x28 arch/arm/cpu/armv7/start.o
 .rel.u_boot_list_2_cmd_2_printenv
                0x0000000000076cdc       0x30 arch/arm/cpu/armv7/start.o
 .rel.u_boot_list_2_cmd_2_run
                0x0000000000076d0c       0x30 arch/arm/cpu/armv7/start.o
 .rel.u_boot_list_2_cmd_2_saveenv
                0x0000000000076d3c       0x28 arch/arm/cpu/armv7/start.o
 .rel.u_boot_list_2_cmd_2_setenv
                0x0000000000076d64       0x30 arch/arm/cpu/armv7/start.o
 .rel.text.main_loop
                0x0000000000076d94       0x10 arch/arm/cpu/armv7/start.o
 .rel.text.jumptable_init
                0x0000000000076da4       0xc0 arch/arm/cpu/armv7/start.o
 .rel.text.hash_command
                0x0000000000076e64        0x8 arch/arm/cpu/armv7/start.o
 .rel.text.mapset
                0x0000000000076e6c        0x8 arch/arm/cpu/armv7/start.o
 .rel.text.syntax_err
                0x0000000000076e74        0x8 arch/arm/cpu/armv7/start.o
 .rel.text.xmalloc
                0x0000000000076e7c        0x8 arch/arm/cpu/armv7/start.o
 .rel.text.xrealloc
                0x0000000000076e84        0x8 arch/arm/cpu/armv7/start.o
 .rel.text.done_word
                0x0000000000076e8c        0x8 arch/arm/cpu/armv7/start.o
 .rel.text.is_assignment
                0x0000000000076e94        0x8 arch/arm/cpu/armv7/start.o
 .rel.text.file_get
                0x0000000000076e9c       0x30 arch/arm/cpu/armv7/start.o
 .rel.text.do_showvar
                0x0000000000076ecc       0x20 arch/arm/cpu/armv7/start.o
 .rel.text.b_addqchr
                0x0000000000076eec        0x8 arch/arm/cpu/armv7/start.o
 .rel.text.get_local_var
                0x0000000000076ef4       0x20 arch/arm/cpu/armv7/start.o
 .rel.text.set_local_var
                0x0000000000076f14       0x20 arch/arm/cpu/armv7/start.o
 .rel.text.insert_var_value_sub
                0x0000000000076f34        0x8 arch/arm/cpu/armv7/start.o
 .rel.text.parse_string_outer
                0x0000000000076f3c       0x18 arch/arm/cpu/armv7/start.o
 .rel.text.run_list_real
                0x0000000000076f54       0x40 arch/arm/cpu/armv7/start.o
 .rel.text.parse_stream_outer
                0x0000000000076f94       0x98 arch/arm/cpu/armv7/start.o
 .rel.text.parse_file_outer
                0x000000000007702c       0x10 arch/arm/cpu/armv7/start.o
 .rel.text.u_boot_hush_start
                0x000000000007703c       0x18 arch/arm/cpu/armv7/start.o
 .rel.text.bootdelay_process
                0x0000000000077054       0x38 arch/arm/cpu/armv7/start.o
 .rel.text.autoboot_command
                0x000000000007708c       0x20 arch/arm/cpu/armv7/start.o
 .rel.text.setup_mon_len
                0x00000000000770ac       0x10 arch/arm/cpu/armv7/start.o
 .rel.text.announce_dram_init
                0x00000000000770bc        0x8 arch/arm/cpu/armv7/start.o
 .rel.text.init_baud_rate
                0x00000000000770c4        0x8 arch/arm/cpu/armv7/start.o
 .rel.text.show_dram_config
                0x00000000000770cc        0x8 arch/arm/cpu/armv7/start.o
 .rel.text.board_init_f
                0x00000000000770d4       0x10 arch/arm/cpu/armv7/start.o
 .rel.text.initr_net
                0x00000000000770e4        0x8 arch/arm/cpu/armv7/start.o
 .rel.text.initr_ethaddr
                0x00000000000770ec        0x8 arch/arm/cpu/armv7/start.o
 .rel.text.initr_env
                0x00000000000770f4       0x20 arch/arm/cpu/armv7/start.o
 .rel.text.initr_mmc
                0x0000000000077114        0x8 arch/arm/cpu/armv7/start.o
 .rel.text.initr_reloc_global_data
                0x000000000007711c       0x18 arch/arm/cpu/armv7/start.o
 .rel.text.board_init_r
                0x0000000000077134       0x10 arch/arm/cpu/armv7/start.o
 .rel.text.bootm_find_images
                0x0000000000077144       0x18 arch/arm/cpu/armv7/start.o
 .rel.text.do_bootm_states
                0x000000000007715c       0xd8 arch/arm/cpu/armv7/start.o
 .rel.text.do_bootm_vxworks
                0x0000000000077234       0x48 arch/arm/cpu/armv7/start.o
 .rel.text.do_bootm_rtems
                0x000000000007727c        0x8 arch/arm/cpu/armv7/start.o
 .rel.text.do_bootm_plan9
                0x0000000000077284       0x18 arch/arm/cpu/armv7/start.o
 .rel.text.do_bootm_standalone
                0x000000000007729c       0x18 arch/arm/cpu/armv7/start.o
 .rel.text.do_bootm_qnxelf
                0x00000000000772b4        0x8 arch/arm/cpu/armv7/start.o
 .rel.text.do_bootm_netbsd
                0x00000000000772bc       0x18 arch/arm/cpu/armv7/start.o
 .rel.text.bootm_os_get_boot_func
                0x00000000000772d4        0x8 arch/arm/cpu/armv7/start.o
 .rel.text.fdt_support_default_count_cells
                0x00000000000772dc        0x8 arch/arm/cpu/armv7/start.o
 .rel.text.__of_translate_address
                0x00000000000772e4       0x18 arch/arm/cpu/armv7/start.o
 .rel.text.fdt_find_or_add_subnode
                0x00000000000772fc       0x10 arch/arm/cpu/armv7/start.o
 .rel.text.fdt_root
                0x000000000007730c       0x20 arch/arm/cpu/armv7/start.o
 .rel.text.fdt_initrd
                0x000000000007732c       0x30 arch/arm/cpu/armv7/start.o
 .rel.text.fdt_chosen
                0x000000000007735c       0x20 arch/arm/cpu/armv7/start.o
 .rel.text.do_fixup_by_path
                0x000000000007737c        0x8 arch/arm/cpu/armv7/start.o
 .rel.text.fdt_fixup_memory_banks
                0x0000000000077384       0x38 arch/arm/cpu/armv7/start.o
 .rel.text.fdt_fixup_ethernet
                0x00000000000773bc       0x30 arch/arm/cpu/armv7/start.o
 .rel.text.fdt_translate_address
                0x00000000000773ec        0x8 arch/arm/cpu/armv7/start.o
 .rel.text.fdt_read_range
                0x00000000000773f4       0x18 arch/arm/cpu/armv7/start.o
 .rel.text.fdt_setup_simplefb_node
                0x000000000007740c       0x40 arch/arm/cpu/armv7/start.o
 .rel.text.fdt_overlay_apply_verbose
                0x000000000007744c       0x20 arch/arm/cpu/armv7/start.o
 .rel.text.miiphy_get_dev_by_name
                0x000000000007746c       0x10 arch/arm/cpu/armv7/start.o
 .rel.text.miiphy_init
                0x000000000007747c       0x10 arch/arm/cpu/armv7/start.o
 .rel.text.mdio_register
                0x000000000007748c       0x18 arch/arm/cpu/armv7/start.o
 .rel.text.mdio_unregister
                0x00000000000774a4        0x8 arch/arm/cpu/armv7/start.o
 .rel.text.mdio_list_devices
                0x00000000000774ac       0x28 arch/arm/cpu/armv7/start.o
 .rel.text.miiphy_set_current_dev
                0x00000000000774d4       0x10 arch/arm/cpu/armv7/start.o
 .rel.text.miiphy_get_active_dev
                0x00000000000774e4        0x8 arch/arm/cpu/armv7/start.o
 .rel.text.mdio_get_current_dev
                0x00000000000774ec        0x8 arch/arm/cpu/armv7/start.o
 .rel.text.mdio_phydev_for_ethname
                0x00000000000774f4       0x10 arch/arm/cpu/armv7/start.o
 .rel.text.miiphy_get_current_dev
                0x0000000000077504        0x8 arch/arm/cpu/armv7/start.o
 .rel.text.miiphy_listdev
                0x000000000007750c       0x30 arch/arm/cpu/armv7/start.o
 .rel.text.miiphy_speed
                0x000000000007753c       0x20 arch/arm/cpu/armv7/start.o
 .rel.text.miiphy_duplex
                0x000000000007755c       0x20 arch/arm/cpu/armv7/start.o
 .rel.text.get_descriptor_len
                0x000000000007757c       0x10 arch/arm/cpu/armv7/start.o
 .rel.text.usb_setup_descriptor
                0x000000000007758c       0x10 arch/arm/cpu/armv7/start.o
 .rel.text.usb_string_sub
                0x000000000007759c        0x8 arch/arm/cpu/armv7/start.o
 .rel.text.usb_get_configuration_len
                0x00000000000775a4       0x10 arch/arm/cpu/armv7/start.o
 .rel.text.usb_set_interface
                0x00000000000775b4        0x8 arch/arm/cpu/armv7/start.o
 .rel.text.usb_select_config
                0x00000000000775bc       0x70 arch/arm/cpu/armv7/start.o
 .rel.text.usb_setup_device
                0x000000000007762c       0x10 arch/arm/cpu/armv7/start.o
 .rel.text.usb_find_usb2_hub_address_port
                0x000000000007763c        0x8 arch/arm/cpu/armv7/start.o
 .rel.text.usb_hub_port_connect_change
                0x0000000000077644        0x8 arch/arm/cpu/armv7/start.o
 .rel.text.usb_hub_configure
                0x000000000007764c       0x28 arch/arm/cpu/armv7/start.o
 .rel.text.usb_stor_BBB_transport
                0x0000000000077674       0x10 arch/arm/cpu/armv7/start.o
 .rel.text.usb_stor_CB_comdat
                0x0000000000077684        0x8 arch/arm/cpu/armv7/start.o
 .rel.text.usb_stor_CBI_get_status.isra.0
                0x000000000007768c        0x8 arch/arm/cpu/armv7/start.o
 .rel.text.usb_stor_CB_transport
                0x0000000000077694       0x10 arch/arm/cpu/armv7/start.o
 .rel.text.usb_request_sense.constprop.0
                0x00000000000776a4        0x8 arch/arm/cpu/armv7/start.o
 .rel.text.usb_stor_read
                0x00000000000776ac        0x8 arch/arm/cpu/armv7/start.o
 .rel.text.usb_stor_write
                0x00000000000776b4        0x8 arch/arm/cpu/armv7/start.o
 .rel.text.usb_stor_info
                0x00000000000776bc       0x10 arch/arm/cpu/armv7/start.o
 .rel.text.usb_stor_reset
                0x00000000000776cc        0x8 arch/arm/cpu/armv7/start.o
 .rel.text.usb_stor_scan
                0x00000000000776d4       0x18 arch/arm/cpu/armv7/start.o
 .rel.text.usb_storage_probe
                0x00000000000776ec       0x38 arch/arm/cpu/armv7/start.o
 .rel.text.usb_stor_get_info
                0x0000000000077724       0x20 arch/arm/cpu/armv7/start.o
 .rel.text.usb_mass_storage_probe
                0x0000000000077744       0x18 arch/arm/cpu/armv7/start.o
 .rel.text.iomux_doenv
                0x000000000007775c       0x10 arch/arm/cpu/armv7/start.o
 .rel.text.lcd_dt_simplefb_configure_node
                0x000000000007776c       0x10 arch/arm/cpu/armv7/start.o
 .rel.text.lcd_dt_simplefb_add_node
                0x000000000007777c       0x28 arch/arm/cpu/armv7/start.o
 .rel.text.menu_get_choice
                0x00000000000777a4       0x18 arch/arm/cpu/armv7/start.o
 .rel.text.usb_kbd_remove
                0x00000000000777bc       0x20 arch/arm/cpu/armv7/start.o
 .rel.text.usb_kbd_translate.part.0
                0x00000000000777dc       0x20 arch/arm/cpu/armv7/start.o
 .rel.text.usb_kbd_probe
                0x00000000000777fc       0x38 arch/arm/cpu/armv7/start.o
 .rel.text.usb_kbd_testc
                0x0000000000077834       0x10 arch/arm/cpu/armv7/start.o
 .rel.text.delete_char.part.0
                0x0000000000077844       0x10 arch/arm/cpu/armv7/start.o
 .rel.text.cread_add_char
                0x0000000000077854        0x8 arch/arm/cpu/armv7/start.o
 .rel.text.cli_readline_into_buffer
                0x000000000007785c      0x2b8 arch/arm/cpu/armv7/start.o
 .rel.text.cli_readline
                0x0000000000077b14        0x8 arch/arm/cpu/armv7/start.o
 .rel.text.console_tstc
                0x0000000000077b1c       0x20 arch/arm/cpu/armv7/start.o
 .rel.text.console_putc
                0x0000000000077b3c       0x10 arch/arm/cpu/armv7/start.o
 .rel.text.console_puts
                0x0000000000077b4c       0x10 arch/arm/cpu/armv7/start.o
 .rel.text.on_console
                0x0000000000077b5c       0x20 arch/arm/cpu/armv7/start.o
 .rel.text.console_getc.isra.0
                0x0000000000077b7c        0x8 arch/arm/cpu/armv7/start.o
 .rel.text.getc
                0x0000000000077b84        0x8 arch/arm/cpu/armv7/start.o
 .rel.text.ctrlc
                0x0000000000077b8c       0x10 arch/arm/cpu/armv7/start.o
 .rel.text.disable_ctrlc
                0x0000000000077b9c        0x8 arch/arm/cpu/armv7/start.o
 .rel.text.had_ctrlc
                0x0000000000077ba4        0x8 arch/arm/cpu/armv7/start.o
 .rel.text.clear_ctrlc
                0x0000000000077bac        0x8 arch/arm/cpu/armv7/start.o
 .rel.text.console_assign
                0x0000000000077bb4       0x30 arch/arm/cpu/armv7/start.o
 .rel.text.stdio_print_current_devices
                0x0000000000077be4       0x40 arch/arm/cpu/armv7/start.o
 .rel.text.console_init_r
                0x0000000000077c24       0x48 arch/arm/cpu/armv7/start.o
 .rel.text.sbrk
                0x0000000000077c6c       0x18 arch/arm/cpu/armv7/start.o
 .rel.text.mem_malloc_init
                0x0000000000077c84       0x18 arch/arm/cpu/armv7/start.o
 .rel.text.malloc_trim
                0x0000000000077c9c       0x18 arch/arm/cpu/armv7/start.o
 .rel.text.free
                0x0000000000077cb4       0x20 arch/arm/cpu/armv7/start.o
 .rel.text.malloc
                0x0000000000077cd4       0x48 arch/arm/cpu/armv7/start.o
 .rel.text.calloc
                0x0000000000077d1c        0x8 arch/arm/cpu/armv7/start.o
 .rel.text.realloc
                0x0000000000077d24       0x10 arch/arm/cpu/armv7/start.o
 .rel.text.alloc_simple
                0x0000000000077d34        0x8 arch/arm/cpu/armv7/start.o
 .rel.text.on_loadaddr
                0x0000000000077d3c        0x8 arch/arm/cpu/armv7/start.o
 .rel.text.env_get_bootm_low
                0x0000000000077d44        0x8 arch/arm/cpu/armv7/start.o
 .rel.text.env_get_bootm_size
                0x0000000000077d4c       0x10 arch/arm/cpu/armv7/start.o
 .rel.text.env_get_bootm_mapsize
                0x0000000000077d5c        0x8 arch/arm/cpu/armv7/start.o
 .rel.text.genimg_print_size
                0x0000000000077d64       0x10 arch/arm/cpu/armv7/start.o
 .rel.text.genimg_get_os_name
                0x0000000000077d74       0x10 arch/arm/cpu/armv7/start.o
 .rel.text.genimg_get_arch_name
                0x0000000000077d84       0x10 arch/arm/cpu/armv7/start.o
 .rel.text.genimg_get_type_name
                0x0000000000077d94       0x10 arch/arm/cpu/armv7/start.o
 .rel.text.image_decomp
                0x0000000000077da4       0x28 arch/arm/cpu/armv7/start.o
 .rel.text.genimg_get_comp_name
                0x0000000000077dcc       0x10 arch/arm/cpu/armv7/start.o
 .rel.text.image_print_contents
                0x0000000000077ddc       0x58 arch/arm/cpu/armv7/start.o
 .rel.text.genimg_get_kernel_addr_fit
                0x0000000000077e34        0x8 arch/arm/cpu/armv7/start.o
 .rel.text.boot_get_ramdisk
                0x0000000000077e3c       0x50 arch/arm/cpu/armv7/start.o
 .rel.text.boot_ramdisk_high
                0x0000000000077e8c       0x20 arch/arm/cpu/armv7/start.o
 .rel.text.fdt_error
                0x0000000000077eac       0x10 arch/arm/cpu/armv7/start.o
 .rel.text.boot_fdt_add_mem_rsv_regions
                0x0000000000077ebc       0x20 arch/arm/cpu/armv7/start.o
 .rel.text.boot_relocate_fdt
                0x0000000000077edc       0x40 arch/arm/cpu/armv7/start.o
 .rel.text.boot_get_fdt
                0x0000000000077f1c       0x80 arch/arm/cpu/armv7/start.o
 .rel.text.image_setup_libfdt
                0x0000000000077f9c       0x28 arch/arm/cpu/armv7/start.o
 .rel.text.stdio_get_list
                0x0000000000077fc4        0x8 arch/arm/cpu/armv7/start.o
 .rel.text.stdio_get_by_name
                0x0000000000077fcc       0x10 arch/arm/cpu/armv7/start.o
 .rel.text.stdio_register_dev
                0x0000000000077fdc        0x8 arch/arm/cpu/armv7/start.o
 .rel.text.stdio_deregister_dev
                0x0000000000077fe4       0x18 arch/arm/cpu/armv7/start.o
 .rel.text.stdio_init_tables
                0x0000000000077ffc        0x8 arch/arm/cpu/armv7/start.o
 .rel.text.stdio_add_devices
                0x0000000000078004       0x50 arch/arm/cpu/armv7/start.o
 .rel.text.do_run
                0x0000000000078054        0x8 arch/arm/cpu/armv7/start.o
 .rel.text.cli_process_fdt
                0x000000000007805c       0x10 arch/arm/cpu/armv7/start.o
 .rel.text.cli_secure_boot_cmd
                0x000000000007806c       0x18 arch/arm/cpu/armv7/start.o
 .rel.text.find_cmd
                0x0000000000078084       0x10 arch/arm/cpu/armv7/start.o
 .rel.text.cmd_usage
                0x0000000000078094       0x18 arch/arm/cpu/armv7/start.o
 .rel.text._do_help
                0x00000000000780ac       0x10 arch/arm/cpu/armv7/start.o
 .rel.text.var_complete
                0x00000000000780bc       0x10 arch/arm/cpu/armv7/start.o
 .rel.text.complete_subcmdv
                0x00000000000780cc        0x8 arch/arm/cpu/armv7/start.o
 .rel.text.cmd_auto_complete
                0x00000000000780d4       0x40 arch/arm/cpu/armv7/start.o
 .rel.text.cmd_get_data_size
                0x0000000000078114        0x8 arch/arm/cpu/armv7/start.o
 .rel.text.cmd_process
                0x000000000007811c       0x38 arch/arm/cpu/armv7/start.o
 .rel.text.cmd_process_error
                0x0000000000078154        0x8 arch/arm/cpu/armv7/start.o
 .rel.text.srec_decode
                0x000000000007815c       0xa0 arch/arm/cpu/armv7/start.o
 .rel.text.xyzModem_get_hdr
                0x00000000000781fc       0x30 arch/arm/cpu/armv7/start.o
 .rel.text.xyzModem_stream_open
                0x000000000007822c       0x10 arch/arm/cpu/armv7/start.o
 .rel.text.xyzModem_stream_read
                0x000000000007823c        0x8 arch/arm/cpu/armv7/start.o
 .rel.text.xyzModem_stream_close
                0x0000000000078244       0x20 arch/arm/cpu/armv7/start.o
 .rel.text.xyzModem_stream_terminate
                0x0000000000078264        0x8 arch/arm/cpu/armv7/start.o
 .rel.text.xyzModem_error
                0x000000000007826c       0x10 arch/arm/cpu/armv7/start.o
 .rel.rodata.init_sequence_f
                0x000000000007827c      0x160 arch/arm/cpu/armv7/start.o
 .rel.rodata.boot_os
                0x00000000000783dc       0x38 arch/arm/cpu/armv7/start.o
 .rel.rodata.usb_hub_ids
                0x0000000000078414        0x8 arch/arm/cpu/armv7/start.o
 .rel.rodata.usb_mass_storage_ids
                0x000000000007841c        0x8 arch/arm/cpu/armv7/start.o
 .rel.rodata.usb_storage_ops
                0x0000000000078424       0x10 arch/arm/cpu/armv7/start.o
 .rel.rodata.usb_kbd_ids
                0x0000000000078434        0x8 arch/arm/cpu/armv7/start.o
 .rel.rodata.uimage_arch
                0x000000000007843c      0x1b0 arch/arm/cpu/armv7/start.o
 .rel.rodata.uimage_comp
                0x00000000000785ec       0x70 arch/arm/cpu/armv7/start.o
 .rel.rodata.uimage_os
                0x000000000007865c       0xe0 arch/arm/cpu/armv7/start.o
 .rel.rodata.uimage_type
                0x000000000007873c      0x280 arch/arm/cpu/armv7/start.o
 .rel.rodata.CSWTCH.32
                0x00000000000789bc       0x80 arch/arm/cpu/armv7/start.o
 .rel.data.reserved_list
                0x0000000000078a3c       0x58 arch/arm/cpu/armv7/start.o
 .rel.u_boot_list_2_cmd_2_showvar
                0x0000000000078a94       0x28 arch/arm/cpu/armv7/start.o
 .rel.data.init_sequence_r
                0x0000000000078abc       0xe8 arch/arm/cpu/armv7/start.o
 .rel.data.of_busses
                0x0000000000078ba4       0x28 arch/arm/cpu/armv7/start.o
 .rel.data.usb_scan_list
                0x0000000000078bcc       0x10 arch/arm/cpu/armv7/start.o
 .rel.u_boot_list_2_driver_2_usb_generic_hub
                0x0000000000078bdc       0x10 arch/arm/cpu/armv7/start.o
 .rel.u_boot_list_2_uclass_2_usb_hub
                0x0000000000078bec       0x20 arch/arm/cpu/armv7/start.o
 .rel.u_boot_list_2_usb_driver_entry_2_usb_generic_hub
                0x0000000000078c0c       0x10 arch/arm/cpu/armv7/start.o
 .rel.u_boot_list_2_driver_2_usb_mass_storage
                0x0000000000078c1c       0x18 arch/arm/cpu/armv7/start.o
 .rel.u_boot_list_2_driver_2_usb_storage_blk
                0x0000000000078c34       0x10 arch/arm/cpu/armv7/start.o
 .rel.u_boot_list_2_uclass_2_usb_mass_storage
                0x0000000000078c44        0x8 arch/arm/cpu/armv7/start.o
 .rel.u_boot_list_2_usb_driver_entry_2_usb_mass_storage
                0x0000000000078c4c       0x10 arch/arm/cpu/armv7/start.o
 .rel.u_boot_list_2_driver_2_usb_kbd
                0x0000000000078c5c       0x20 arch/arm/cpu/armv7/start.o
 .rel.u_boot_list_2_usb_driver_entry_2_usb_kbd
                0x0000000000078c7c       0x10 arch/arm/cpu/armv7/start.o
 .rel.u_boot_list_2_env_clbk_2_console
                0x0000000000078c8c       0x10 arch/arm/cpu/armv7/start.o
 .rel.data.av_  0x0000000000078c9c      0x800 arch/arm/cpu/armv7/start.o
 .rel.u_boot_list_2_env_clbk_2_loadaddr
                0x000000000007949c       0x10 arch/arm/cpu/armv7/start.o
 .rel.data.stdio_names
                0x00000000000794ac       0x18 arch/arm/cpu/armv7/start.o
 .rel.text.part_driver_lookup_type
                0x00000000000794c4       0x10 arch/arm/cpu/armv7/start.o
 .rel.text.dev_print
                0x00000000000794d4      0x138 arch/arm/cpu/armv7/start.o
 .rel.text.part_init
                0x000000000007960c       0x10 arch/arm/cpu/armv7/start.o
 .rel.text.part_print
                0x000000000007961c       0xd0 arch/arm/cpu/armv7/start.o
 .rel.text.part_get_info_whole_disk
                0x00000000000796ec       0x10 arch/arm/cpu/armv7/start.o
 .rel.text.blk_get_device_by_str
                0x00000000000796fc       0x10 arch/arm/cpu/armv7/start.o
 .rel.text.blk_get_device_part_str
                0x000000000007970c       0x58 arch/arm/cpu/armv7/start.o
 .rel.text.part_set_generic_name
                0x0000000000079764       0x18 arch/arm/cpu/armv7/start.o
 .rel.text.test_block_type
                0x000000000007977c       0x10 arch/arm/cpu/armv7/start.o
 .rel.text.part_get_info_extended
                0x000000000007978c       0x28 arch/arm/cpu/armv7/start.o
 .rel.text.print_partition_extended
                0x00000000000797b4       0x38 arch/arm/cpu/armv7/start.o
 .rel.text.part_print_dos
                0x00000000000797ec        0x8 arch/arm/cpu/armv7/start.o
 .rel.text.part_get_info_iso_verb
                0x00000000000797f4       0x98 arch/arm/cpu/armv7/start.o
 .rel.text.part_print_iso
                0x000000000007988c       0x18 arch/arm/cpu/armv7/start.o
 .rel.text.print_efiname
                0x00000000000798a4       0x10 arch/arm/cpu/armv7/start.o
 .rel.text.validate_gpt_entries
                0x00000000000798b4       0x10 arch/arm/cpu/armv7/start.o
 .rel.text.validate_gpt_header
                0x00000000000798c4       0x30 arch/arm/cpu/armv7/start.o
 .rel.text.is_gpt_valid
                0x00000000000798f4       0x40 arch/arm/cpu/armv7/start.o
 .rel.text.is_pte_valid
                0x0000000000079934       0x10 arch/arm/cpu/armv7/start.o
 .rel.text.find_valid_gpt
                0x0000000000079944       0x20 arch/arm/cpu/armv7/start.o
 .rel.text.part_print_efi
                0x0000000000079964       0x40 arch/arm/cpu/armv7/start.o
 .rel.text.part_get_info_efi
                0x00000000000799a4       0x28 arch/arm/cpu/armv7/start.o
 .rel.u_boot_list_2_part_driver_2_dos
                0x00000000000799cc       0x20 arch/arm/cpu/armv7/start.o
 .rel.u_boot_list_2_part_driver_2_iso
                0x00000000000799ec       0x20 arch/arm/cpu/armv7/start.o
 .rel.u_boot_list_2_part_driver_2_a_efi
                0x0000000000079a0c       0x20 arch/arm/cpu/armv7/start.o
 .rel.text.device_bind_common.isra.0
                0x0000000000079a2c       0x10 arch/arm/cpu/armv7/start.o
 .rel.text.device_probe
                0x0000000000079a3c       0x18 arch/arm/cpu/armv7/start.o
 .rel.text.dev_get_platdata
                0x0000000000079a54       0x10 arch/arm/cpu/armv7/start.o
 .rel.text.dev_get_parent_platdata
                0x0000000000079a64       0x10 arch/arm/cpu/armv7/start.o
 .rel.text.dev_get_uclass_platdata
                0x0000000000079a74       0x10 arch/arm/cpu/armv7/start.o
 .rel.text.dev_get_priv
                0x0000000000079a84       0x10 arch/arm/cpu/armv7/start.o
 .rel.text.dev_get_uclass_priv
                0x0000000000079a94       0x10 arch/arm/cpu/armv7/start.o
 .rel.text.dev_get_parent_priv
                0x0000000000079aa4       0x10 arch/arm/cpu/armv7/start.o
 .rel.text.devfdt_get_addr_index
                0x0000000000079ab4        0x8 arch/arm/cpu/armv7/start.o
 .rel.text.lists_driver_lookup_name
                0x0000000000079abc       0x10 arch/arm/cpu/armv7/start.o
 .rel.text.lists_uclass_lookup
                0x0000000000079acc       0x10 arch/arm/cpu/armv7/start.o
 .rel.text.lists_bind_drivers
                0x0000000000079adc       0x18 arch/arm/cpu/armv7/start.o
 .rel.text.lists_bind_fdt
                0x0000000000079af4       0x28 arch/arm/cpu/armv7/start.o
 .rel.text.dm_scan_fdt_node
                0x0000000000079b1c        0x8 arch/arm/cpu/armv7/start.o
 .rel.text.dm_root
                0x0000000000079b24        0x8 arch/arm/cpu/armv7/start.o
 .rel.text.dm_init
                0x0000000000079b2c       0x10 arch/arm/cpu/armv7/start.o
 .rel.text.dm_scan_platdata
                0x0000000000079b3c        0x8 arch/arm/cpu/armv7/start.o
 .rel.text.dm_extended_scan_fdt
                0x0000000000079b44        0x8 arch/arm/cpu/armv7/start.o
 .rel.text.uclass_resolve_seq
                0x0000000000079b4c        0x8 arch/arm/cpu/armv7/start.o
 .rel.text.device_chld_unbind
                0x0000000000079b54        0x8 arch/arm/cpu/armv7/start.o
 .rel.text.device_remove
                0x0000000000079b5c       0x20 arch/arm/cpu/armv7/start.o
 .rel.text.simple_bus_post_bind
                0x0000000000079b7c        0x8 arch/arm/cpu/armv7/start.o
 .rel.text.show_devices
                0x0000000000079b84       0x30 arch/arm/cpu/armv7/start.o
 .rel.text.dm_dump_all
                0x0000000000079bb4       0x10 arch/arm/cpu/armv7/start.o
 .rel.text.dm_dump_uclass
                0x0000000000079bc4       0x20 arch/arm/cpu/armv7/start.o
 .rel.text.dm_dump_drivers
                0x0000000000079be4       0x48 arch/arm/cpu/armv7/start.o
 .rel.text.ofnode_pre_reloc
                0x0000000000079c2c       0x20 arch/arm/cpu/armv7/start.o
 .rel.text.keyboard_pre_probe
                0x0000000000079c4c       0x20 arch/arm/cpu/armv7/start.o
 .rel.text.pinconfig_post_bind
                0x0000000000079c6c       0x18 arch/arm/cpu/armv7/start.o
 .rel.text.pinctrl_select_state
                0x0000000000079c84       0x18 arch/arm/cpu/armv7/start.o
 .rel.text.bcm283x_pinctrl_set_state
                0x0000000000079c9c       0x10 arch/arm/cpu/armv7/start.o
 .rel.text.bcm283x_pinctl_probe
                0x0000000000079cac       0x10 arch/arm/cpu/armv7/start.o
 .rel.text.blk_get_if_type_name
                0x0000000000079cbc        0x8 arch/arm/cpu/armv7/start.o
 .rel.text.blk_get_devnum_by_typename
                0x0000000000079cc4       0x10 arch/arm/cpu/armv7/start.o
 .rel.text.blk_list_devices
                0x0000000000079cd4        0x8 arch/arm/cpu/armv7/start.o
 .rel.text.blk_print_device_num
                0x0000000000079cdc        0x8 arch/arm/cpu/armv7/start.o
 .rel.text.blk_show_device
                0x0000000000079ce4       0x10 arch/arm/cpu/armv7/start.o
 .rel.text.blk_create_devicef
                0x0000000000079cf4        0x8 arch/arm/cpu/armv7/start.o
 .rel.text.blkcache_read
                0x0000000000079cfc       0x10 arch/arm/cpu/armv7/start.o
 .rel.text.blkcache_fill
                0x0000000000079d0c       0x10 arch/arm/cpu/armv7/start.o
 .rel.text.blkcache_invalidate
                0x0000000000079d1c       0x10 arch/arm/cpu/armv7/start.o
 .rel.text.blkcache_configure
                0x0000000000079d2c       0x10 arch/arm/cpu/armv7/start.o
 .rel.text.blkcache_stats
                0x0000000000079d3c        0x8 arch/arm/cpu/armv7/start.o
 .rel.text.mmc_set_capacity
                0x0000000000079d44       0x40 arch/arm/cpu/armv7/start.o
 .rel.text.mmc_mode_name
                0x0000000000079d84       0x10 arch/arm/cpu/armv7/start.o
 .rel.text.mmc_poll_for_busy
                0x0000000000079d94       0x10 arch/arm/cpu/armv7/start.o
 .rel.text.mmc_bread
                0x0000000000079da4       0x10 arch/arm/cpu/armv7/start.o
 .rel.text.mmc_startup_v4
                0x0000000000079db4        0x8 arch/arm/cpu/armv7/start.o
 .rel.text.mmc_hwpart_config
                0x0000000000079dbc       0x48 arch/arm/cpu/armv7/start.o
 .rel.text.mmc_startup
                0x0000000000079e04       0xb0 arch/arm/cpu/armv7/start.o
 .rel.text.mmc_get_op_cond
                0x0000000000079eb4        0x8 arch/arm/cpu/armv7/start.o
 .rel.text.mmc_start_init
                0x0000000000079ebc        0x8 arch/arm/cpu/armv7/start.o
 .rel.text.mmc_initialize
                0x0000000000079ec4       0x10 arch/arm/cpu/armv7/start.o
 .rel.text.find_mmc_device
                0x0000000000079ed4        0x8 arch/arm/cpu/armv7/start.o
 .rel.text.print_mmc_devices
                0x0000000000079edc       0x38 arch/arm/cpu/armv7/start.o
 .rel.text.mmc_bind
                0x0000000000079f14       0x10 arch/arm/cpu/armv7/start.o
 .rel.text.mmc_berase
                0x0000000000079f24       0x10 arch/arm/cpu/armv7/start.o
 .rel.text.mmc_bwrite
                0x0000000000079f34       0x18 arch/arm/cpu/armv7/start.o
 .rel.text.sdhci_reset
                0x0000000000079f4c       0x10 arch/arm/cpu/armv7/start.o
 .rel.text.sdhci_send_command
                0x0000000000079f5c       0x40 arch/arm/cpu/armv7/start.o
 .rel.text.sdhci_set_clock
                0x0000000000079f9c       0x18 arch/arm/cpu/armv7/start.o
 .rel.text.sdhci_probe
                0x0000000000079fb4       0x18 arch/arm/cpu/armv7/start.o
 .rel.text.sdhci_setup_cfg
                0x0000000000079fcc       0x20 arch/arm/cpu/armv7/start.o
 .rel.text.bcm2835_sdhci_probe
                0x0000000000079fec        0x8 arch/arm/cpu/armv7/start.o
 .rel.text.bcm2835_sdhci_writew
                0x0000000000079ff4        0x8 arch/arm/cpu/armv7/start.o
 .rel.text.bcm2835_read_wait_sdcmd.isra.0
                0x0000000000079ffc       0x10 arch/arm/cpu/armv7/start.o
 .rel.text.bcm2835_finish_command
                0x000000000007a00c       0x10 arch/arm/cpu/armv7/start.o
 .rel.text.bcm2835_send_cmd
                0x000000000007a01c       0x88 arch/arm/cpu/armv7/start.o
 .rel.text.console_normal_putc_xy
                0x000000000007a0a4        0x8 arch/arm/cpu/armv7/start.o
 .rel.text.simple_panel_ofdata_to_platdata
                0x000000000007a0ac       0x10 arch/arm/cpu/armv7/start.o
 .rel.text.video_post_bind
                0x000000000007a0bc        0x8 arch/arm/cpu/armv7/start.o
 .rel.text.video_post_probe
                0x000000000007a0c4       0x10 arch/arm/cpu/armv7/start.o
 .rel.text.vidconsole_post_probe
                0x000000000007a0d4       0x20 arch/arm/cpu/armv7/start.o
 .rel.text.vid_console_color
                0x000000000007a0f4        0x8 arch/arm/cpu/armv7/start.o
 .rel.text.vidconsole_put_char
                0x000000000007a0fc       0x98 arch/arm/cpu/armv7/start.o
 .rel.rodata.root_info
                0x000000000007a194        0x8 arch/arm/cpu/armv7/start.o
 .rel.rodata.generic_simple_bus_ids
                0x000000000007a19c       0x10 arch/arm/cpu/armv7/start.o
 .rel.rodata.bcm2835_pinctrl_id
                0x000000000007a1ac       0x10 arch/arm/cpu/armv7/start.o
 .rel.rodata.if_typename_str
                0x000000000007a1bc       0x60 arch/arm/cpu/armv7/start.o
 .rel.rodata.names.9853
                0x000000000007a21c       0x68 arch/arm/cpu/armv7/start.o
 .rel.rodata.mmc_blk_ops
                0x000000000007a284       0x20 arch/arm/cpu/armv7/start.o
 .rel.rodata.sdhci_ops
                0x000000000007a2a4       0x20 arch/arm/cpu/armv7/start.o
 .rel.rodata.bcm2835_ops
                0x000000000007a2c4       0x40 arch/arm/cpu/armv7/start.o
 .rel.rodata.bcm2835_sdhci_match
                0x000000000007a304       0x10 arch/arm/cpu/armv7/start.o
 .rel.rodata.bcm2835_match
                0x000000000007a314        0x8 arch/arm/cpu/armv7/start.o
 .rel.rodata.simple_panel_ids
                0x000000000007a31c       0x30 arch/arm/cpu/armv7/start.o
 .rel.rodata.simple_panel_ops
                0x000000000007a34c       0x10 arch/arm/cpu/armv7/start.o
 .rel.rodata.bcm2835_video_ids
                0x000000000007a35c       0x10 arch/arm/cpu/armv7/start.o
 .rel.u_boot_list_2_driver_2_root_driver
                0x000000000007a36c        0x8 arch/arm/cpu/armv7/start.o
 .rel.u_boot_list_2_uclass_2_root
                0x000000000007a374        0x8 arch/arm/cpu/armv7/start.o
 .rel.u_boot_list_2_uclass_2_nop
                0x000000000007a37c        0x8 arch/arm/cpu/armv7/start.o
 .rel.u_boot_list_2_driver_2_simple_bus_drv
                0x000000000007a384       0x10 arch/arm/cpu/armv7/start.o
 .rel.u_boot_list_2_uclass_2_simple_bus
                0x000000000007a394       0x10 arch/arm/cpu/armv7/start.o
 .rel.u_boot_list_2_uclass_2_keyboard
                0x000000000007a3a4       0x10 arch/arm/cpu/armv7/start.o
 .rel.u_boot_list_2_driver_2_pinconfig_generic
                0x000000000007a3b4        0x8 arch/arm/cpu/armv7/start.o
 .rel.u_boot_list_2_uclass_2_pinconfig
                0x000000000007a3bc       0x10 arch/arm/cpu/armv7/start.o
 .rel.u_boot_list_2_uclass_2_pinctrl
                0x000000000007a3cc       0x10 arch/arm/cpu/armv7/start.o
 .rel.data.bcm283x_pinctrl_ops
                0x000000000007a3dc       0x10 arch/arm/cpu/armv7/start.o
 .rel.u_boot_list_2_driver_2_pinctrl_bcm283x
                0x000000000007a3ec       0x20 arch/arm/cpu/armv7/start.o
 .rel.u_boot_list_2_uclass_2_blk
                0x000000000007a40c       0x10 arch/arm/cpu/armv7/start.o
 .rel.data.block_cache
                0x000000000007a41c       0x10 arch/arm/cpu/armv7/start.o
 .rel.u_boot_list_2_driver_2_mmc_blk
                0x000000000007a42c       0x18 arch/arm/cpu/armv7/start.o
 .rel.u_boot_list_2_uclass_2_mmc
                0x000000000007a444        0x8 arch/arm/cpu/armv7/start.o
 .rel.u_boot_list_2_driver_2_sdhci_cdns
                0x000000000007a44c       0x28 arch/arm/cpu/armv7/start.o
 .rel.u_boot_list_2_driver_2_bcm2835_sdhost
                0x000000000007a474       0x28 arch/arm/cpu/armv7/start.o
 .rel.data.console_normal_ops
                0x000000000007a49c       0x18 arch/arm/cpu/armv7/start.o
 .rel.u_boot_list_2_driver_2_vidconsole_normal
                0x000000000007a4b4       0x18 arch/arm/cpu/armv7/start.o
 .rel.u_boot_list_2_uclass_2_backlight
                0x000000000007a4cc        0x8 arch/arm/cpu/armv7/start.o
 .rel.u_boot_list_2_uclass_2_panel
                0x000000000007a4d4        0x8 arch/arm/cpu/armv7/start.o
 .rel.u_boot_list_2_driver_2_simple_panel
                0x000000000007a4dc       0x28 arch/arm/cpu/armv7/start.o
 .rel.u_boot_list_2_uclass_2_video
                0x000000000007a504       0x28 arch/arm/cpu/armv7/start.o
 .rel.u_boot_list_2_cmd_2_lcdputs
                0x000000000007a52c       0x28 arch/arm/cpu/armv7/start.o
 .rel.u_boot_list_2_cmd_2_setcurs
                0x000000000007a554       0x28 arch/arm/cpu/armv7/start.o
 .rel.u_boot_list_2_uclass_2_vidconsole
                0x000000000007a57c       0x18 arch/arm/cpu/armv7/start.o
 .rel.u_boot_list_2_driver_2_bcm2835_video
                0x000000000007a594       0x18 arch/arm/cpu/armv7/start.o
 .rel.text.check_reserved
                0x000000000007a5ac       0x10 arch/arm/cpu/armv7/start.o
 .rel.text.dm_gpio_lookup_name
                0x000000000007a5bc        0x8 arch/arm/cpu/armv7/start.o
 .rel.text.gpio_direction_input
                0x000000000007a5c4        0x8 arch/arm/cpu/armv7/start.o
 .rel.text.gpio_direction_output
                0x000000000007a5cc        0x8 arch/arm/cpu/armv7/start.o
 .rel.text.dm_gpio_get_value
                0x000000000007a5d4        0x8 arch/arm/cpu/armv7/start.o
 .rel.text.dm_gpio_set_value
                0x000000000007a5dc        0x8 arch/arm/cpu/armv7/start.o
 .rel.text.dm_gpio_set_dir_flags
                0x000000000007a5e4        0x8 arch/arm/cpu/armv7/start.o
 .rel.text.gpio_request_tail
                0x000000000007a5ec       0x10 arch/arm/cpu/armv7/start.o
 .rel.text.gpio_get_status
                0x000000000007a5fc       0x28 arch/arm/cpu/armv7/start.o
 .rel.text.gpio_request_by_name
                0x000000000007a624        0x8 arch/arm/cpu/armv7/start.o
 .rel.text.bcm2835_gpio_probe
                0x000000000007a62c        0x8 arch/arm/cpu/armv7/start.o
 .rel.rodata.gpio_function
                0x000000000007a634       0x28 arch/arm/cpu/armv7/start.o
 .rel.rodata.gpio_bcm2835_ops
                0x000000000007a65c       0x28 arch/arm/cpu/armv7/start.o
 .rel.u_boot_list_2_uclass_2_gpio
                0x000000000007a684       0x20 arch/arm/cpu/armv7/start.o
 .rel.u_boot_list_2_driver_2_gpio_bcm2835
                0x000000000007a6a4       0x20 arch/arm/cpu/armv7/start.o
 .rel.text.genphy_update_link
                0x000000000007a6c4       0x28 arch/arm/cpu/armv7/start.o
 .rel.text.phy_register
                0x000000000007a6ec        0x8 arch/arm/cpu/armv7/start.o
 .rel.text.genphy_init
                0x000000000007a6f4        0x8 arch/arm/cpu/armv7/start.o
 .rel.text.get_phy_device_by_mask
                0x000000000007a6fc       0x28 arch/arm/cpu/armv7/start.o
 .rel.text.phy_reset
                0x000000000007a724        0x8 arch/arm/cpu/armv7/start.o
 .rel.text.phy_connect_dev
                0x000000000007a72c        0x8 arch/arm/cpu/armv7/start.o
 .rel.text.phy_connect
                0x000000000007a734        0x8 arch/arm/cpu/armv7/start.o
 .rel.data.genphy_driver
                0x000000000007a73c       0x20 arch/arm/cpu/armv7/start.o
 .rel.data.phy_drivers
                0x000000000007a75c       0x10 arch/arm/cpu/armv7/start.o
 .rel.text.serial_post_probe
                0x000000000007a76c       0x20 arch/arm/cpu/armv7/start.o
 .rel.text.serial_init
                0x000000000007a78c       0x10 arch/arm/cpu/armv7/start.o
 .rel.text.on_baudrate
                0x000000000007a79c       0x18 arch/arm/cpu/armv7/start.o
 .rel.text.pl01x_serial_ofdata_to_platdata
                0x000000000007a7b4       0x10 arch/arm/cpu/armv7/start.o
 .rel.text.bcm283x_mu_serial_ofdata_to_platdata
                0x000000000007a7c4        0x8 arch/arm/cpu/armv7/start.o
 .rel.rodata.pl01x_serial_id
                0x000000000007a7cc       0x10 arch/arm/cpu/armv7/start.o
 .rel.rodata.pl01x_serial_ops
                0x000000000007a7dc       0x20 arch/arm/cpu/armv7/start.o
 .rel.rodata.bcm283x_mu_serial_id
                0x000000000007a7fc        0x8 arch/arm/cpu/armv7/start.o
 .rel.rodata.bcm283x_mu_serial_ops
                0x000000000007a804       0x20 arch/arm/cpu/armv7/start.o
 .rel.rodata.bcm283x_pl011_serial_id
                0x000000000007a824        0x8 arch/arm/cpu/armv7/start.o
 .rel.rodata.bcm283x_pl011_serial_ops
                0x000000000007a82c       0x20 arch/arm/cpu/armv7/start.o
 .rel.u_boot_list_2_env_clbk_2_baudrate
                0x000000000007a84c       0x10 arch/arm/cpu/armv7/start.o
 .rel.u_boot_list_2_uclass_2_serial
                0x000000000007a85c       0x18 arch/arm/cpu/armv7/start.o
 .rel.u_boot_list_2_driver_2_serial_pl01x
                0x000000000007a874       0x28 arch/arm/cpu/armv7/start.o
 .rel.u_boot_list_2_driver_2_serial_bcm283x_mu
                0x000000000007a89c       0x28 arch/arm/cpu/armv7/start.o
 .rel.u_boot_list_2_driver_2_bcm283x_pl011_uart
                0x000000000007a8c4       0x28 arch/arm/cpu/armv7/start.o
 .rel.text.usb_ether_receive
                0x000000000007a8ec        0x8 arch/arm/cpu/armv7/start.o
 .rel.text.smsc95xx_eth_start
                0x000000000007a8f4       0x20 arch/arm/cpu/armv7/start.o
 .rel.text.lan7x_phylib_register
                0x000000000007a914       0x28 arch/arm/cpu/armv7/start.o
 .rel.text.lan7x_eth_phylib_connect
                0x000000000007a93c        0x8 arch/arm/cpu/armv7/start.o
 .rel.text.lan7x_eth_phylib_config_start
                0x000000000007a944       0x10 arch/arm/cpu/armv7/start.o
 .rel.rodata.smsc95xx_eth_ops
                0x000000000007a954       0x38 arch/arm/cpu/armv7/start.o
 .rel.rodata.lan78xx_eth_ops
                0x000000000007a98c       0x38 arch/arm/cpu/armv7/start.o
 .rel.u_boot_list_2_driver_2_smsc95xx_eth
                0x000000000007a9c4       0x18 arch/arm/cpu/armv7/start.o
 .rel.u_boot_list_2_usb_driver_entry_2_smsc95xx_eth
                0x000000000007a9dc       0x10 arch/arm/cpu/armv7/start.o
 .rel.u_boot_list_2_driver_2_lan78xx_eth
                0x000000000007a9ec       0x20 arch/arm/cpu/armv7/start.o
 .rel.u_boot_list_2_usb_driver_entry_2_lan78xx_eth
                0x000000000007aa0c       0x10 arch/arm/cpu/armv7/start.o
 .rel.text.usb_child_post_bind
                0x000000000007aa1c       0x10 arch/arm/cpu/armv7/start.o
 .rel.text.usb_disable_asynch
                0x000000000007aa2c        0x8 arch/arm/cpu/armv7/start.o
 .rel.text.usb_stop
                0x000000000007aa34        0x8 arch/arm/cpu/armv7/start.o
 .rel.text.usb_scan_device
                0x000000000007aa3c       0x20 arch/arm/cpu/armv7/start.o
 .rel.text.usb_scan_bus.isra.0
                0x000000000007aa5c       0x20 arch/arm/cpu/armv7/start.o
 .rel.text.usb_init
                0x000000000007aa7c       0x30 arch/arm/cpu/armv7/start.o
 .rel.text.dwc2_usb_ofdata_to_platdata
                0x000000000007aaac       0x10 arch/arm/cpu/armv7/start.o
 .rel.text.dwc2_usb_probe
                0x000000000007aabc        0x8 arch/arm/cpu/armv7/start.o
 .rel.text.chunk_msg
                0x000000000007aac4        0x8 arch/arm/cpu/armv7/start.o
 .rel.text.dwc2_submit_control_msg
                0x000000000007aacc       0x30 arch/arm/cpu/armv7/start.o
 .rel.text._submit_int_msg
                0x000000000007aafc        0x8 arch/arm/cpu/armv7/start.o
 .rel.rodata.dwc2_usb_ids
                0x000000000007ab04       0x18 arch/arm/cpu/armv7/start.o
 .rel.u_boot_list_2_driver_2_usb_dev_generic_drv
                0x000000000007ab1c        0x8 arch/arm/cpu/armv7/start.o
 .rel.u_boot_list_2_uclass_2_usb
                0x000000000007ab24       0x20 arch/arm/cpu/armv7/start.o
 .rel.u_boot_list_2_uclass_2_usb_dev_generic
                0x000000000007ab44        0x8 arch/arm/cpu/armv7/start.o
 .rel.data.dwc2_usb_ops
                0x000000000007ab4c       0x18 arch/arm/cpu/armv7/start.o
 .rel.u_boot_list_2_driver_2_usb_dwc2
                0x000000000007ab64       0x30 arch/arm/cpu/armv7/start.o
 .rel.text.env_set_default
                0x000000000007ab94       0x28 arch/arm/cpu/armv7/start.o
 .rel.text.env_set_default_vars
                0x000000000007abbc       0x10 arch/arm/cpu/armv7/start.o
 .rel.text.env_import
                0x000000000007abcc       0x28 arch/arm/cpu/armv7/start.o
 .rel.text.env_export
                0x000000000007abf4       0x18 arch/arm/cpu/armv7/start.o
 .rel.text.env_relocate
                0x000000000007ac0c        0x8 arch/arm/cpu/armv7/start.o
 .rel.text.env_complete
                0x000000000007ac14       0x30 arch/arm/cpu/armv7/start.o
 .rel.text.env_driver_lookup
                0x000000000007ac44       0x10 arch/arm/cpu/armv7/start.o
 .rel.text.env_get_char
                0x000000000007ac54        0x8 arch/arm/cpu/armv7/start.o
 .rel.text.env_load
                0x000000000007ac5c       0x10 arch/arm/cpu/armv7/start.o
 .rel.text.env_save
                0x000000000007ac6c       0x18 arch/arm/cpu/armv7/start.o
 .rel.text.env_init
                0x000000000007ac84        0x8 arch/arm/cpu/armv7/start.o
 .rel.text.regex_callback
                0x000000000007ac8c       0x10 arch/arm/cpu/armv7/start.o
 .rel.text.env_attr_lookup
                0x000000000007ac9c        0x8 arch/arm/cpu/armv7/start.o
 .rel.text.skip_num
                0x000000000007aca4        0x8 arch/arm/cpu/armv7/start.o
 .rel.text.on_flags
                0x000000000007acac       0x20 arch/arm/cpu/armv7/start.o
 .rel.text.env_flags_parse_vartype
                0x000000000007accc       0x10 arch/arm/cpu/armv7/start.o
 .rel.text.env_flags_parse_varaccess
                0x000000000007acdc       0x10 arch/arm/cpu/armv7/start.o
 .rel.text.set_flags
                0x000000000007acec       0x10 arch/arm/cpu/armv7/start.o
 .rel.text.env_flags_init
                0x000000000007acfc       0x30 arch/arm/cpu/armv7/start.o
 .rel.text.env_flags_validate
                0x000000000007ad2c       0x68 arch/arm/cpu/armv7/start.o
 .rel.text.find_env_callback
                0x000000000007ad94       0x10 arch/arm/cpu/armv7/start.o
 .rel.text.on_callbacks
                0x000000000007ada4       0x20 arch/arm/cpu/armv7/start.o
 .rel.text.set_callback
                0x000000000007adc4        0x8 arch/arm/cpu/armv7/start.o
 .rel.text.env_callback_init
                0x000000000007adcc       0x20 arch/arm/cpu/armv7/start.o
 .rel.text.env_fat_save
                0x000000000007adec       0x28 arch/arm/cpu/armv7/start.o
 .rel.text.env_fat_load
                0x000000000007ae14       0x28 arch/arm/cpu/armv7/start.o
 .rel.data.env_htab
                0x000000000007ae3c        0x8 arch/arm/cpu/armv7/start.o
 .rel.u_boot_list_2_env_clbk_2_flags
                0x000000000007ae44       0x10 arch/arm/cpu/armv7/start.o
 .rel.u_boot_list_2_env_clbk_2_callbacks
                0x000000000007ae54       0x10 arch/arm/cpu/armv7/start.o
 .rel.u_boot_list_2_env_driver_2_fat
                0x000000000007ae64       0x18 arch/arm/cpu/armv7/start.o
 .rel.text.fs_probe_unsupported
                0x000000000007ae7c        0x8 arch/arm/cpu/armv7/start.o
 .rel.text.fs_get_info
                0x000000000007ae84        0x8 arch/arm/cpu/armv7/start.o
 .rel.text.fs_get_type
                0x000000000007ae8c        0x8 arch/arm/cpu/armv7/start.o
 .rel.text.fs_set_blk_dev
                0x000000000007ae94       0x28 arch/arm/cpu/armv7/start.o
 .rel.text.fs_set_blk_dev_with_part
                0x000000000007aebc       0x28 arch/arm/cpu/armv7/start.o
 .rel.text.fs_close
                0x000000000007aee4        0x8 arch/arm/cpu/armv7/start.o
 .rel.text.fs_uuid
                0x000000000007aeec        0x8 arch/arm/cpu/armv7/start.o
 .rel.text.fs_ls
                0x000000000007aef4        0x8 arch/arm/cpu/armv7/start.o
 .rel.text.fs_exists
                0x000000000007aefc        0x8 arch/arm/cpu/armv7/start.o
 .rel.text.fs_size
                0x000000000007af04        0x8 arch/arm/cpu/armv7/start.o
 .rel.text.fs_read
                0x000000000007af0c        0x8 arch/arm/cpu/armv7/start.o
 .rel.text.fs_write
                0x000000000007af14       0x10 arch/arm/cpu/armv7/start.o
 .rel.text.fs_opendir
                0x000000000007af24       0x20 arch/arm/cpu/armv7/start.o
 .rel.text.fs_readdir
                0x000000000007af44       0x10 arch/arm/cpu/armv7/start.o
 .rel.text.fs_closedir
                0x000000000007af54        0x8 arch/arm/cpu/armv7/start.o
 .rel.text.fs_ls_generic
                0x000000000007af5c       0x20 arch/arm/cpu/armv7/start.o
 .rel.text.fs_unlink
                0x000000000007af7c        0x8 arch/arm/cpu/armv7/start.o
 .rel.text.fs_mkdir
                0x000000000007af84        0x8 arch/arm/cpu/armv7/start.o
 .rel.text.fs_ln
                0x000000000007af8c       0x10 arch/arm/cpu/armv7/start.o
 .rel.text.do_size
                0x000000000007af9c        0x8 arch/arm/cpu/armv7/start.o
 .rel.text.do_load
                0x000000000007afa4       0x68 arch/arm/cpu/armv7/start.o
 .rel.text.do_ls
                0x000000000007b00c        0x8 arch/arm/cpu/armv7/start.o
 .rel.text.do_save
                0x000000000007b014       0x28 arch/arm/cpu/armv7/start.o
 .rel.text.do_fs_uuid
                0x000000000007b03c        0x8 arch/arm/cpu/armv7/start.o
 .rel.text.do_fs_type
                0x000000000007b044       0x10 arch/arm/cpu/armv7/start.o
 .rel.text.do_mkdir
                0x000000000007b054        0x8 arch/arm/cpu/armv7/start.o
 .rel.text.get_fs
                0x000000000007b05c        0x8 arch/arm/cpu/armv7/start.o
 .rel.text.ext4fs_free_node
                0x000000000007b064        0x8 arch/arm/cpu/armv7/start.o
 .rel.text.ext4fs_ls
                0x000000000007b06c       0x10 arch/arm/cpu/armv7/start.o
 .rel.text.ext4fs_uuid
                0x000000000007b07c        0x8 arch/arm/cpu/armv7/start.o
 .rel.text.ext4fs_read_file
                0x000000000007b084        0x8 arch/arm/cpu/armv7/start.o
 .rel.text.ext4fs_read
                0x000000000007b08c       0x10 arch/arm/cpu/armv7/start.o
 .rel.text.ext4_read_file
                0x000000000007b09c        0x8 arch/arm/cpu/armv7/start.o
 .rel.text.read_allocated_block
                0x000000000007b0a4       0xb0 arch/arm/cpu/armv7/start.o
 .rel.text.ext4fs_reinit_global
                0x000000000007b154       0x48 arch/arm/cpu/armv7/start.o
 .rel.text.ext4fs_close
                0x000000000007b19c       0x10 arch/arm/cpu/armv7/start.o
 .rel.text.ext4fs_iterate_dir
                0x000000000007b1ac       0x30 arch/arm/cpu/armv7/start.o
 .rel.text.ext4fs_find_file1
                0x000000000007b1dc       0x10 arch/arm/cpu/armv7/start.o
 .rel.text.ext4fs_find_file
                0x000000000007b1ec        0x8 arch/arm/cpu/armv7/start.o
 .rel.text.ext4fs_open
                0x000000000007b1f4       0x10 arch/arm/cpu/armv7/start.o
 .rel.text.ext4fs_mount
                0x000000000007b204       0x10 arch/arm/cpu/armv7/start.o
 .rel.text.ext4fs_set_blk_dev
                0x000000000007b214       0x10 arch/arm/cpu/armv7/start.o
 .rel.text.ext4fs_devread
                0x000000000007b224        0x8 arch/arm/cpu/armv7/start.o
 .rel.text.downcase
                0x000000000007b22c        0x8 arch/arm/cpu/armv7/start.o
 .rel.text.disk_read
                0x000000000007b234       0x10 arch/arm/cpu/armv7/start.o
 .rel.text.read_bootsectandvi
                0x000000000007b244       0x20 arch/arm/cpu/armv7/start.o
 .rel.text.fat_itr_root
                0x000000000007b264       0x20 arch/arm/cpu/armv7/start.o
 .rel.text.split_filename
                0x000000000007b284        0x8 arch/arm/cpu/armv7/start.o
 .rel.text.disk_write
                0x000000000007b28c       0x20 arch/arm/cpu/armv7/start.o
 .rel.text.get_fatent
                0x000000000007b2ac        0x8 arch/arm/cpu/armv7/start.o
 .rel.text.set_name
                0x000000000007b2b4        0x8 arch/arm/cpu/armv7/start.o
 .rel.text.normalize_longname
                0x000000000007b2bc        0x8 arch/arm/cpu/armv7/start.o
 .rel.text.fat_itr_resolve
                0x000000000007b2c4       0x10 arch/arm/cpu/armv7/start.o
 .rel.text.set_contents
                0x000000000007b2d4       0x20 arch/arm/cpu/armv7/start.o
 .rel.text.fat_set_blk_dev
                0x000000000007b2f4       0x28 arch/arm/cpu/armv7/start.o
 .rel.text.file_fat_detectfs
                0x000000000007b31c       0xb0 arch/arm/cpu/armv7/start.o
 .rel.text.file_fat_read_at
                0x000000000007b3cc       0x10 arch/arm/cpu/armv7/start.o
 .rel.text.fat_read_file
                0x000000000007b3dc        0x8 arch/arm/cpu/armv7/start.o
 .rel.text.file_fat_write_at
                0x000000000007b3e4       0x48 arch/arm/cpu/armv7/start.o
 .rel.text.fat_unlink
                0x000000000007b42c       0x50 arch/arm/cpu/armv7/start.o
 .rel.text.fat_mkdir
                0x000000000007b47c       0x68 arch/arm/cpu/armv7/start.o
 .rel.text.fs_devread
                0x000000000007b4e4       0x30 arch/arm/cpu/armv7/start.o
 .rel.data.fstypes
                0x000000000007b514      0x148 arch/arm/cpu/armv7/start.o
 .rel.text.efi_uc_destroy
                0x000000000007b65c        0x8 arch/arm/cpu/armv7/start.o
 .rel.text.efi_uc_init
                0x000000000007b664        0x8 arch/arm/cpu/armv7/start.o
 .rel.text.check_node_type
                0x000000000007b66c       0x10 arch/arm/cpu/armv7/start.o
 .rel.text.efi_uc_start
                0x000000000007b67c        0x8 arch/arm/cpu/armv7/start.o
 .rel.text.efi_uc_supported
                0x000000000007b684        0x8 arch/arm/cpu/armv7/start.o
 .rel.text.disconnect_child
                0x000000000007b68c        0x8 arch/arm/cpu/armv7/start.o
 .rel.text.efi_uc_stop
                0x000000000007b694       0x18 arch/arm/cpu/armv7/start.o
 .rel.text.efi_driver_init
                0x000000000007b6ac       0x40 arch/arm/cpu/armv7/start.o
 .rel.text.efi_bl_bind
                0x000000000007b6ec       0x10 arch/arm/cpu/armv7/start.o
 .rel.text.get_var.constprop.0
                0x000000000007b6fc       0x10 arch/arm/cpu/armv7/start.o
 .rel.text.try_load_entry
                0x000000000007b70c       0x40 arch/arm/cpu/armv7/start.o
 .rel.text.efi_bootmgr_load
                0x000000000007b74c       0x48 arch/arm/cpu/armv7/start.o
 .rel.text.efi_is_event
                0x000000000007b794        0x8 arch/arm/cpu/armv7/start.o
 .rel.text.__efi_entry_check
                0x000000000007b79c       0x18 arch/arm/cpu/armv7/start.o
 .rel.text.__efi_exit_check
                0x000000000007b7b4       0x10 arch/arm/cpu/armv7/start.o
 .rel.text.efi_process_event_queue
                0x000000000007b7c4       0x10 arch/arm/cpu/armv7/start.o
 .rel.text.efi_queue_event
                0x000000000007b7d4        0x8 arch/arm/cpu/armv7/start.o
 .rel.text.efi_get_next_monotonic_count
                0x000000000007b7dc        0x8 arch/arm/cpu/armv7/start.o
 .rel.text.efi_register_protocol_notify
                0x000000000007b7e4        0x8 arch/arm/cpu/armv7/start.o
 .rel.text.efi_close_event
                0x000000000007b7ec        0x8 arch/arm/cpu/armv7/start.o
 .rel.text.efi_raise_tpl
                0x000000000007b7f4        0x8 arch/arm/cpu/armv7/start.o
 .rel.text.efi_save_gd
                0x000000000007b7fc        0x8 arch/arm/cpu/armv7/start.o
 .rel.text.efi_restore_gd
                0x000000000007b804        0x8 arch/arm/cpu/armv7/start.o
 .rel.text.efi_signal_event
                0x000000000007b80c        0x8 arch/arm/cpu/armv7/start.o
 .rel.text.efi_exit_boot_services
                0x000000000007b814       0x28 arch/arm/cpu/armv7/start.o
 .rel.text.efi_add_handle
                0x000000000007b83c        0x8 arch/arm/cpu/armv7/start.o
 .rel.text.efi_create_event
                0x000000000007b844        0x8 arch/arm/cpu/armv7/start.o
 .rel.text.efi_timer_check
                0x000000000007b84c       0x10 arch/arm/cpu/armv7/start.o
 .rel.text.efi_wait_for_event
                0x000000000007b85c        0x8 arch/arm/cpu/armv7/start.o
 .rel.text.efi_restore_tpl
                0x000000000007b864        0x8 arch/arm/cpu/armv7/start.o
 .rel.text.efi_search_obj
                0x000000000007b86c        0x8 arch/arm/cpu/armv7/start.o
 .rel.text.efi_locate_protocol
                0x000000000007b874       0x10 arch/arm/cpu/armv7/start.o
 .rel.text.efi_locate_handle
                0x000000000007b884       0x10 arch/arm/cpu/armv7/start.o
 .rel.text.efi_locate_device_path
                0x000000000007b894        0x8 arch/arm/cpu/armv7/start.o
 .rel.text.efi_delete_image
                0x000000000007b89c        0x8 arch/arm/cpu/armv7/start.o
 .rel.text.efi_disconnect_controller
                0x000000000007b8a4        0x8 arch/arm/cpu/armv7/start.o
 .rel.text.efi_handle_protocol
                0x000000000007b8ac        0x8 arch/arm/cpu/armv7/start.o
 .rel.text.efi_bind_controller
                0x000000000007b8b4        0x8 arch/arm/cpu/armv7/start.o
 .rel.text.efi_exit
                0x000000000007b8bc       0x18 arch/arm/cpu/armv7/start.o
 .rel.text.efi_start_image
                0x000000000007b8d4       0x20 arch/arm/cpu/armv7/start.o
 .rel.text.efi_unload_image
                0x000000000007b8f4        0x8 arch/arm/cpu/armv7/start.o
 .rel.text.efi_connect_controller
                0x000000000007b8fc        0x8 arch/arm/cpu/armv7/start.o
 .rel.text.efi_add_protocol
                0x000000000007b904       0x10 arch/arm/cpu/armv7/start.o
 .rel.text.efi_install_multiple_protocol_interfaces
                0x000000000007b914        0x8 arch/arm/cpu/armv7/start.o
 .rel.text.efi_install_configuration_table
                0x000000000007b91c       0x10 arch/arm/cpu/armv7/start.o
 .rel.text.efi_setup_loaded_image
                0x000000000007b92c       0x20 arch/arm/cpu/armv7/start.o
 .rel.text.efi_load_image
                0x000000000007b94c       0x18 arch/arm/cpu/armv7/start.o
 .rel.text.efi_initialize_system_table
                0x000000000007b964       0x28 arch/arm/cpu/armv7/start.o
 .rel.text.efi_cout_enable_cursor
                0x000000000007b98c       0x10 arch/arm/cpu/armv7/start.o
 .rel.text.efi_cout_set_cursor_position
                0x000000000007b99c       0x18 arch/arm/cpu/armv7/start.o
 .rel.text.efi_cout_clear_screen
                0x000000000007b9b4       0x10 arch/arm/cpu/armv7/start.o
 .rel.text.efi_cout_set_attribute
                0x000000000007b9c4       0x20 arch/arm/cpu/armv7/start.o
 .rel.text.efi_cout_reset
                0x000000000007b9e4       0x10 arch/arm/cpu/armv7/start.o
 .rel.text.efi_cout_output_string
                0x000000000007b9f4       0x10 arch/arm/cpu/armv7/start.o
 .rel.text.efi_cin_unregister_key_notify
                0x000000000007ba04        0x8 arch/arm/cpu/armv7/start.o
 .rel.text.efi_cin_empty_buffer
                0x000000000007ba0c        0x8 arch/arm/cpu/armv7/start.o
 .rel.text.efi_cin_register_key_notify
                0x000000000007ba14        0x8 arch/arm/cpu/armv7/start.o
 .rel.text.efi_cout_set_mode
                0x000000000007ba1c       0x10 arch/arm/cpu/armv7/start.o
 .rel.text.efi_cout_query_mode
                0x000000000007ba2c       0x10 arch/arm/cpu/armv7/start.o
 .rel.text.analyze_modifiers.constprop.0
                0x000000000007ba3c        0x8 arch/arm/cpu/armv7/start.o
 .rel.text.efi_cin_check
                0x000000000007ba44      0x1a0 arch/arm/cpu/armv7/start.o
 .rel.text.efi_cin_read_key_stroke
                0x000000000007bbe4       0x18 arch/arm/cpu/armv7/start.o
 .rel.text.efi_cin_read_key_stroke_ex
                0x000000000007bbfc       0x18 arch/arm/cpu/armv7/start.o
 .rel.text.efi_console_register
                0x000000000007bc14       0xa0 arch/arm/cpu/armv7/start.o
 .rel.text.dp_fill
                0x000000000007bcb4        0x8 arch/arm/cpu/armv7/start.o
 .rel.text.find_obj
                0x000000000007bcbc       0x10 arch/arm/cpu/armv7/start.o
 .rel.text.efi_dp_append
                0x000000000007bccc        0x8 arch/arm/cpu/armv7/start.o
 .rel.text.efi_dp_append_node
                0x000000000007bcd4        0x8 arch/arm/cpu/armv7/start.o
 .rel.text.efi_dp_append_instance
                0x000000000007bcdc        0x8 arch/arm/cpu/armv7/start.o
 .rel.text.efi_dp_from_part
                0x000000000007bce4        0x8 arch/arm/cpu/armv7/start.o
 .rel.text.efi_dp_from_file
                0x000000000007bcec        0x8 arch/arm/cpu/armv7/start.o
 .rel.text.efi_dp_from_eth
                0x000000000007bcf4        0x8 arch/arm/cpu/armv7/start.o
 .rel.text.efi_dp_from_mem
                0x000000000007bcfc        0x8 arch/arm/cpu/armv7/start.o
 .rel.text.efi_dp_from_name
                0x000000000007bd04       0x10 arch/arm/cpu/armv7/start.o
 .rel.text.dp_unknown
                0x000000000007bd14        0x8 arch/arm/cpu/armv7/start.o
 .rel.text.efi_convert_single_device_node_to_text
                0x000000000007bd1c      0x150 arch/arm/cpu/armv7/start.o
 .rel.text.file_open
                0x000000000007be6c       0x30 arch/arm/cpu/armv7/start.o
 .rel.text.efi_file_getinfo
                0x000000000007be9c       0x18 arch/arm/cpu/armv7/start.o
 .rel.text.efi_file_setinfo
                0x000000000007beb4        0x8 arch/arm/cpu/armv7/start.o
 .rel.text.efi_file_from_path
                0x000000000007bebc        0x8 arch/arm/cpu/armv7/start.o
 .rel.text.efi_simple_file_system
                0x000000000007bec4        0x8 arch/arm/cpu/armv7/start.o
 .rel.text.efi_hii_packagelist_exists
                0x000000000007becc        0x8 arch/arm/cpu/armv7/start.o
 .rel.text.get_package_list_handle
                0x000000000007bed4        0x8 arch/arm/cpu/armv7/start.o
 .rel.text.list_package_lists
                0x000000000007bedc       0x58 arch/arm/cpu/armv7/start.o
 .rel.text.find_keyboard_layouts
                0x000000000007bf34        0x8 arch/arm/cpu/armv7/start.o
 .rel.text.get_keyboard_layout
                0x000000000007bf3c        0x8 arch/arm/cpu/armv7/start.o
 .rel.text.add_packages
                0x000000000007bf44       0x58 arch/arm/cpu/armv7/start.o
 .rel.text.new_package_list
                0x000000000007bf9c        0x8 arch/arm/cpu/armv7/start.o
 .rel.text.update_package_list
                0x000000000007bfa4       0x50 arch/arm/cpu/armv7/start.o
 .rel.text.efi_set_code_and_data_type
                0x000000000007bff4       0x10 arch/arm/cpu/armv7/start.o
 .rel.text.efi_print_image_infos
                0x000000000007c004       0x38 arch/arm/cpu/armv7/start.o
 .rel.text.efi_load_pe
                0x000000000007c03c       0xb0 arch/arm/cpu/armv7/start.o
 .rel.text.efi_check_allocated
                0x000000000007c0ec        0x8 arch/arm/cpu/armv7/start.o
 .rel.text.efi_find_free_memory
                0x000000000007c0f4        0x8 arch/arm/cpu/armv7/start.o
 .rel.text.efi_add_memory_map
                0x000000000007c0fc       0x28 arch/arm/cpu/armv7/start.o
 .rel.text.efi_free_pages
                0x000000000007c124       0x10 arch/arm/cpu/armv7/start.o
 .rel.text.efi_free_pool
                0x000000000007c134       0x10 arch/arm/cpu/armv7/start.o
 .rel.text.efi_get_memory_map
                0x000000000007c144       0x10 arch/arm/cpu/armv7/start.o
 .rel.text.efi_memory_init
                0x000000000007c154       0x10 arch/arm/cpu/armv7/start.o
 .rel.text.efi_root_node_register
                0x000000000007c164       0x78 arch/arm/cpu/armv7/start.o
 .rel.text.efi_reset_system_boottime
                0x000000000007c1dc       0x10 arch/arm/cpu/armv7/start.o
 .rel.text.efi_init_runtime_supported
                0x000000000007c1ec        0x8 arch/arm/cpu/armv7/start.o
 .rel.text.efi_runtime_detach
                0x000000000007c1f4       0x20 arch/arm/cpu/armv7/start.o
 .rel.text.efi_runtime_relocate
                0x000000000007c214       0x40 arch/arm/cpu/armv7/start.o
 .rel.text.efi_set_virtual_address_map
                0x000000000007c254       0x38 arch/arm/cpu/armv7/start.o
 .rel.text.efi_add_runtime_mmio
                0x000000000007c28c        0x8 arch/arm/cpu/armv7/start.o
 .rel.text.efi_init_obj_list
                0x000000000007c294       0x38 arch/arm/cpu/armv7/start.o
 .rel.text.efi_str_to_fat
                0x000000000007c2cc       0x10 arch/arm/cpu/armv7/start.o
 .rel.text.efi_fat_to_str
                0x000000000007c2dc        0x8 arch/arm/cpu/armv7/start.o
 .rel.text.efi_to_native
                0x000000000007c2e4       0x10 arch/arm/cpu/armv7/start.o
 .rel.text.parse_attr.part.0
                0x000000000007c2f4       0x38 arch/arm/cpu/armv7/start.o
 .rel.text.efi_get_variable_common.isra.0
                0x000000000007c32c       0x18 arch/arm/cpu/armv7/start.o
 .rel.text.efi_get_next_variable_name
                0x000000000007c344       0x18 arch/arm/cpu/armv7/start.o
 .rel.text.efi_transfer_secure_state
                0x000000000007c35c       0x40 arch/arm/cpu/armv7/start.o
 .rel.text.efi_set_variable_common
                0x000000000007c39c       0xa0 arch/arm/cpu/armv7/start.o
 .rel.text.efi_variables_boot_exit_notify
                0x000000000007c43c       0x20 arch/arm/cpu/armv7/start.o
 .rel.text.efi_init_variables
                0x000000000007c45c       0x20 arch/arm/cpu/armv7/start.o
 .rel.text.efi_watchdog_timer_notify
                0x000000000007c47c       0x10 arch/arm/cpu/armv7/start.o
 .rel.text.efi_set_watchdog
                0x000000000007c48c        0x8 arch/arm/cpu/armv7/start.o
 .rel.text.efi_watchdog_register
                0x000000000007c494       0x20 arch/arm/cpu/armv7/start.o
 .rel.text.gop_blt
                0x000000000007c4b4       0x60 arch/arm/cpu/armv7/start.o
 .rel.text.efi_gop_register
                0x000000000007c514       0x30 arch/arm/cpu/armv7/start.o
 .rel.text.efi_disk_add_dev.isra.0.part.0
                0x000000000007c544       0x40 arch/arm/cpu/armv7/start.o
 .rel.text.efi_fs_from_path
                0x000000000007c584        0x8 arch/arm/cpu/armv7/start.o
 .rel.text.efi_disk_create_partitions
                0x000000000007c58c       0x18 arch/arm/cpu/armv7/start.o
 .rel.text.efi_disk_register
                0x000000000007c5a4       0x20 arch/arm/cpu/armv7/start.o
 .rel.text.efi_net_push
                0x000000000007c5c4        0x8 arch/arm/cpu/armv7/start.o
 .rel.text.efi_network_timer_notify
                0x000000000007c5cc       0x28 arch/arm/cpu/armv7/start.o
 .rel.text.efi_net_start
                0x000000000007c5f4        0x8 arch/arm/cpu/armv7/start.o
 .rel.text.efi_net_get_status
                0x000000000007c5fc        0x8 arch/arm/cpu/armv7/start.o
 .rel.text.efi_net_receive
                0x000000000007c604       0x18 arch/arm/cpu/armv7/start.o
 .rel.text.efi_net_transmit
                0x000000000007c61c       0x10 arch/arm/cpu/armv7/start.o
 .rel.text.efi_net_shutdown
                0x000000000007c62c        0x8 arch/arm/cpu/armv7/start.o
 .rel.text.efi_net_initialize
                0x000000000007c634        0x8 arch/arm/cpu/armv7/start.o
 .rel.text.efi_net_set_dhcp_ack
                0x000000000007c63c        0x8 arch/arm/cpu/armv7/start.o
 .rel.text.efi_net_register
                0x000000000007c644      0x128 arch/arm/cpu/armv7/start.o
 .rel.text.efi_smbios_register
                0x000000000007c76c        0x8 arch/arm/cpu/armv7/start.o
 .rel.text.console_read_unicode
                0x000000000007c774        0x8 arch/arm/cpu/armv7/start.o
 .rel.text.utf8_get
                0x000000000007c77c        0x8 arch/arm/cpu/armv7/start.o
 .rel.text.utf_to_lower
                0x000000000007c784        0x8 arch/arm/cpu/armv7/start.o
 .rel.text.utf_to_upper
                0x000000000007c78c        0x8 arch/arm/cpu/armv7/start.o
 .rel.text.crc16_ccitt
                0x000000000007c794        0x8 arch/arm/cpu/armv7/start.o
 .rel.text.smbios_write_type3
                0x000000000007c79c        0x8 arch/arm/cpu/armv7/start.o
 .rel.text.smbios_write_type2
                0x000000000007c7a4       0x10 arch/arm/cpu/armv7/start.o
 .rel.text.smbios_write_type0
                0x000000000007c7b4       0x18 arch/arm/cpu/armv7/start.o
 .rel.text.smbios_write_type1
                0x000000000007c7cc       0x18 arch/arm/cpu/armv7/start.o
 .rel.text.smbios_write_type4
                0x000000000007c7e4        0x8 arch/arm/cpu/armv7/start.o
 .rel.text.write_smbios_table
                0x000000000007c7ec       0x18 arch/arm/cpu/armv7/start.o
 .rel.text.list_sort
                0x000000000007c804        0x8 arch/arm/cpu/armv7/start.o
 .rel.text.inflate_fast
                0x000000000007c80c       0x18 arch/arm/cpu/armv7/start.o
 .rel.text.inflate_table
                0x000000000007c824       0x20 arch/arm/cpu/armv7/start.o
 .rel.text.inflateInit2_
                0x000000000007c844       0x10 arch/arm/cpu/armv7/start.o
 .rel.text.inflate
                0x000000000007c854      0x188 arch/arm/cpu/armv7/start.o
 .rel.text.gzip_parse_header
                0x000000000007c9dc       0x10 arch/arm/cpu/armv7/start.o
 .rel.text.zunzip
                0x000000000007c9ec       0x28 arch/arm/cpu/armv7/start.o
 .rel.text.fdt_next_tag
                0x000000000007ca14       0x48 arch/arm/cpu/armv7/start.o
 .rel.text.fdt_get_phandle
                0x000000000007ca5c       0x10 arch/arm/cpu/armv7/start.o
 .rel.text.fdt_get_alias_namelen
                0x000000000007ca6c        0x8 arch/arm/cpu/armv7/start.o
 .rel.text.fdt_strerror
                0x000000000007ca74       0x20 arch/arm/cpu/armv7/start.o
 .rel.text.fdt_address_cells
                0x000000000007ca94        0x8 arch/arm/cpu/armv7/start.o
 .rel.text.fdt_size_cells
                0x000000000007ca9c        0x8 arch/arm/cpu/armv7/start.o
 .rel.text.overlay_adjust_node_phandles
                0x000000000007caa4       0x10 arch/arm/cpu/armv7/start.o
 .rel.text.overlay_get_target
                0x000000000007cab4       0x10 arch/arm/cpu/armv7/start.o
 .rel.text.fdt_overlay_apply
                0x000000000007cac4       0x40 arch/arm/cpu/armv7/start.o
 .rel.text.fdtdec_get_is_enabled
                0x000000000007cb04       0x10 arch/arm/cpu/armv7/start.o
 .rel.text.fdtdec_get_alias_seq
                0x000000000007cb14        0x8 arch/arm/cpu/armv7/start.o
 .rel.text.fdtdec_get_chosen_prop
                0x000000000007cb1c        0x8 arch/arm/cpu/armv7/start.o
 .rel.text.fdtdec_prepare_fdt
                0x000000000007cb24        0x8 arch/arm/cpu/armv7/start.o
 .rel.text.fdtdec_get_config_int
                0x000000000007cb2c        0x8 arch/arm/cpu/armv7/start.o
 .rel.text.fdtdec_get_config_string
                0x000000000007cb34        0x8 arch/arm/cpu/armv7/start.o
 .rel.text.fdtdec_setup
                0x000000000007cb3c       0x10 arch/arm/cpu/armv7/start.o
 .rel.text.match_string
                0x000000000007cb4c        0x8 arch/arm/cpu/armv7/start.o
 .rel.text.match_entry
                0x000000000007cb54        0x8 arch/arm/cpu/armv7/start.o
 .rel.text.hcreate_r
                0x000000000007cb5c        0x8 arch/arm/cpu/armv7/start.o
 .rel.text.hdestroy_r
                0x000000000007cb64        0x8 arch/arm/cpu/armv7/start.o
 .rel.text.hmatch_r
                0x000000000007cb6c        0x8 arch/arm/cpu/armv7/start.o
 .rel.text.hsearch_r
                0x000000000007cb74        0x8 arch/arm/cpu/armv7/start.o
 .rel.text.hdelete_r
                0x000000000007cb7c        0x8 arch/arm/cpu/armv7/start.o
 .rel.text.hexport_r
                0x000000000007cb84       0x18 arch/arm/cpu/armv7/start.o
 .rel.text.himport_r
                0x000000000007cb9c       0x20 arch/arm/cpu/armv7/start.o
 .rel.text.display_options_get_banner_priv
                0x000000000007cbbc       0x28 arch/arm/cpu/armv7/start.o
 .rel.text.display_options
                0x000000000007cbe4        0x8 arch/arm/cpu/armv7/start.o
 .rel.text.print_size
                0x000000000007cbec       0x28 arch/arm/cpu/armv7/start.o
 .rel.text.print_buffer
                0x000000000007cc14       0x28 arch/arm/cpu/armv7/start.o
 .rel.text.hang
                0x000000000007cc3c        0x8 arch/arm/cpu/armv7/start.o
 .rel.text.skip_spaces
                0x000000000007cc44        0x8 arch/arm/cpu/armv7/start.o
 .rel.text.strim
                0x000000000007cc4c        0x8 arch/arm/cpu/armv7/start.o
 .rel.text.lmb_alloc_base
                0x000000000007cc54        0x8 arch/arm/cpu/armv7/start.o
 .rel.text.emit
                0x000000000007cc5c        0x8 arch/arm/cpu/armv7/start.o
 .rel.text.store_char_in_data
                0x000000000007cc64        0x8 arch/arm/cpu/armv7/start.o
 .rel.text.get_escape_char
                0x000000000007cc6c       0x38 arch/arm/cpu/armv7/start.o
 .rel.text.match
                0x000000000007cca4       0x98 arch/arm/cpu/armv7/start.o
 .rel.text.quantifier
                0x000000000007cd3c        0x8 arch/arm/cpu/armv7/start.o
 .rel.text.fixup_branch
                0x000000000007cd44        0x8 arch/arm/cpu/armv7/start.o
 .rel.text.compile
                0x000000000007cd4c       0x80 arch/arm/cpu/armv7/start.o
 .rel.text.slre_compile
                0x000000000007cdcc        0x8 arch/arm/cpu/armv7/start.o
 .rel.text.strncasecmp
                0x000000000007cdd4        0x8 arch/arm/cpu/armv7/start.o
 .rel.text.timer_read_counter
                0x000000000007cddc       0x28 arch/arm/cpu/armv7/start.o
 .rel.text.uuid_str_valid
                0x000000000007ce04        0x8 arch/arm/cpu/armv7/start.o
 .rel.text.uuid_bin_to_str
                0x000000000007ce0c       0x58 arch/arm/cpu/armv7/start.o
 .rel.text.number
                0x000000000007ce64        0x8 arch/arm/cpu/armv7/start.o
 .rel.text.string16
                0x000000000007ce6c        0x8 arch/arm/cpu/armv7/start.o
 .rel.text.string
                0x000000000007ce74        0x8 arch/arm/cpu/armv7/start.o
 .rel.text.vsnprintf_internal
                0x000000000007ce7c       0xc8 arch/arm/cpu/armv7/start.o
 .rel.text.simple_itoa
                0x000000000007cf44        0x8 arch/arm/cpu/armv7/start.o
 .rel.text._parse_integer_fixup_radix
                0x000000000007cf4c        0x8 arch/arm/cpu/armv7/start.o
 .rel.text.simple_strtoul
                0x000000000007cf54        0x8 arch/arm/cpu/armv7/start.o
 .rel.text.ustrtoul
                0x000000000007cf5c        0x8 arch/arm/cpu/armv7/start.o
 .rel.text.simple_strtoull
                0x000000000007cf64        0x8 arch/arm/cpu/armv7/start.o
 .rel.text.ustrtoull
                0x000000000007cf6c        0x8 arch/arm/cpu/armv7/start.o
 .rel.text.trailing_strtoln
                0x000000000007cf74        0x8 arch/arm/cpu/armv7/start.o
 .rel.text.valid_elf_image
                0x000000000007cf7c       0x10 arch/arm/cpu/armv7/start.o
 .rel.rodata.driver_ops
                0x000000000007cf8c       0x18 arch/arm/cpu/armv7/start.o
 .rel.rodata.efi_blk_ops
                0x000000000007cfa4       0x10 arch/arm/cpu/armv7/start.o
 .rel.rodata.efi_device_path_to_text
                0x000000000007cfb4       0x10 arch/arm/cpu/armv7/start.o
 .rel.rodata.efi_device_path_utilities
                0x000000000007cfc4       0x40 arch/arm/cpu/armv7/start.o
 .rel.rodata.efi_file_handle_protocol
                0x000000000007d004       0x70 arch/arm/cpu/armv7/start.o
 .rel.rodata.efi_hii_database
                0x000000000007d074       0x58 arch/arm/cpu/armv7/start.o
 .rel.rodata.efi_hii_string
                0x000000000007d0cc       0x28 arch/arm/cpu/armv7/start.o
 .rel.rodata.efi_hii_config_routing
                0x000000000007d0f4       0x30 arch/arm/cpu/armv7/start.o
 .rel.rodata.efi_unicode_collation_protocol2
                0x000000000007d124       0x38 arch/arm/cpu/armv7/start.o
 .rel.rodata.smbios_write_funcs
                0x000000000007d15c       0x38 arch/arm/cpu/armv7/start.o
 .rel.rodata.fdt_errtable
                0x000000000007d194       0x90 arch/arm/cpu/armv7/start.o
 .rel.u_boot_list_2_uclass_2_efi
                0x000000000007d224       0x18 arch/arm/cpu/armv7/start.o
 .rel.u_boot_list_2_driver_2_efi_blk
                0x000000000007d23c       0x10 arch/arm/cpu/armv7/start.o
 .rel.u_boot_list_2_driver_2_efi_block
                0x000000000007d24c       0x10 arch/arm/cpu/armv7/start.o
 .rel.data.efi_boot_services
                0x000000000007d25c      0x158 arch/arm/cpu/armv7/start.o
 .rel.data.efi_event_queue
                0x000000000007d3b4       0x10 arch/arm/cpu/armv7/start.o
 .rel.data.efi_obj_list
                0x000000000007d3c4       0x10 arch/arm/cpu/armv7/start.o
 .rel.data.efi_register_notify_events
                0x000000000007d3d4       0x10 arch/arm/cpu/armv7/start.o
 .rel.data.cin_notify_functions
                0x000000000007d3e4       0x10 arch/arm/cpu/armv7/start.o
 .rel.data.efi_con_in
                0x000000000007d3f4       0x10 arch/arm/cpu/armv7/start.o
 .rel.data.efi_con_in_ex
                0x000000000007d404       0x28 arch/arm/cpu/armv7/start.o
 .rel.data.efi_con_out
                0x000000000007d42c       0x50 arch/arm/cpu/armv7/start.o
 .rel.data.efi_keyboard_layout_list
                0x000000000007d47c       0x10 arch/arm/cpu/armv7/start.o
 .rel.data.efi_package_lists
                0x000000000007d48c       0x10 arch/arm/cpu/armv7/start.o
 .rel.data.efi_mem
                0x000000000007d49c       0x10 arch/arm/cpu/armv7/start.o
 .rel.data.efi_runtime_mmio
                0x000000000007d4ac       0x10 arch/arm/cpu/armv7/start.o
 .rel.text.arp_init
                0x000000000007d4bc       0x30 arch/arm/cpu/armv7/start.o
 .rel.text.arp_raw_request
                0x000000000007d4ec       0x18 arch/arm/cpu/armv7/start.o
 .rel.text.arp_request
                0x000000000007d504       0x38 arch/arm/cpu/armv7/start.o
 .rel.text.arp_timeout_check
                0x000000000007d53c       0x28 arch/arm/cpu/armv7/start.o
 .rel.text.arp_receive
                0x000000000007d564       0x40 arch/arm/cpu/armv7/start.o
 .rel.text.arp_is_waiting
                0x000000000007d5a4        0x8 arch/arm/cpu/armv7/start.o
 .rel.text.dhcp_extended
                0x000000000007d5ac       0x28 arch/arm/cpu/armv7/start.o
 .rel.text.dhcp_process_options
                0x000000000007d5d4      0x188 arch/arm/cpu/armv7/start.o
 .rel.text.dhcp_packet_process_options
                0x000000000007d75c        0x8 arch/arm/cpu/armv7/start.o
 .rel.text.dhcp_handler
                0x000000000007d764       0x98 arch/arm/cpu/armv7/start.o
 .rel.text.bootp_reset
                0x000000000007d7fc       0x20 arch/arm/cpu/armv7/start.o
 .rel.text.bootp_request
                0x000000000007d81c       0x78 arch/arm/cpu/armv7/start.o
 .rel.text.bootp_timeout_handler
                0x000000000007d894       0x28 arch/arm/cpu/armv7/start.o
 .rel.text.eth_write_hwaddr
                0x000000000007d8bc       0x10 arch/arm/cpu/armv7/start.o
 .rel.text.eth_post_probe
                0x000000000007d8cc       0x50 arch/arm/cpu/armv7/start.o
 .rel.text.eth_post_bind
                0x000000000007d91c        0x8 arch/arm/cpu/armv7/start.o
 .rel.text.eth_get_dev
                0x000000000007d924        0x8 arch/arm/cpu/armv7/start.o
 .rel.text.eth_set_dev
                0x000000000007d92c        0x8 arch/arm/cpu/armv7/start.o
 .rel.text.eth_get_dev_by_name
                0x000000000007d934        0x8 arch/arm/cpu/armv7/start.o
 .rel.text.eth_init
                0x000000000007d93c       0x28 arch/arm/cpu/armv7/start.o
 .rel.text.eth_initialize
                0x000000000007d964       0x28 arch/arm/cpu/armv7/start.o
 .rel.text.eth_env_get_enetaddr_by_index
                0x000000000007d98c       0x10 arch/arm/cpu/armv7/start.o
 .rel.text.eth_env_set_enetaddr_by_index
                0x000000000007d99c       0x10 arch/arm/cpu/armv7/start.o
 .rel.text.eth_mac_skip
                0x000000000007d9ac       0x10 arch/arm/cpu/armv7/start.o
 .rel.text.eth_get_name
                0x000000000007d9bc        0x8 arch/arm/cpu/armv7/start.o
 .rel.text.eth_current_changed
                0x000000000007d9c4       0x18 arch/arm/cpu/armv7/start.o
 .rel.text.eth_try_another
                0x000000000007d9dc       0x20 arch/arm/cpu/armv7/start.o
 .rel.text.eth_set_current
                0x000000000007d9fc       0x20 arch/arm/cpu/armv7/start.o
 .rel.text.net_clear_handlers
                0x000000000007da1c       0x20 arch/arm/cpu/armv7/start.o
 .rel.text.start_again_timeout_handler
                0x000000000007da3c        0x8 arch/arm/cpu/armv7/start.o
 .rel.text.on_ipaddr
                0x000000000007da44        0x8 arch/arm/cpu/armv7/start.o
 .rel.text.on_gatewayip
                0x000000000007da4c        0x8 arch/arm/cpu/armv7/start.o
 .rel.text.on_netmask
                0x000000000007da54        0x8 arch/arm/cpu/armv7/start.o
 .rel.text.on_serverip
                0x000000000007da5c        0x8 arch/arm/cpu/armv7/start.o
 .rel.text.net_init_loop.part.0
                0x000000000007da64        0x8 arch/arm/cpu/armv7/start.o
 .rel.text.net_init
                0x000000000007da6c       0x20 arch/arm/cpu/armv7/start.o
 .rel.text.net_start_again
                0x000000000007da8c       0x78 arch/arm/cpu/armv7/start.o
 .rel.text.net_set_udp_handler
                0x000000000007db04       0x10 arch/arm/cpu/armv7/start.o
 .rel.text.net_get_arp_handler
                0x000000000007db14        0x8 arch/arm/cpu/armv7/start.o
 .rel.text.net_set_timeout_handler
                0x000000000007db1c       0x18 arch/arm/cpu/armv7/start.o
 .rel.text.net_get_async_tx_pkt_buf
                0x000000000007db34       0x10 arch/arm/cpu/armv7/start.o
 .rel.text.net_process_received_packet
                0x000000000007db44       0x40 arch/arm/cpu/armv7/start.o
 .rel.text.net_eth_hdr_size
                0x000000000007db84        0x8 arch/arm/cpu/armv7/start.o
 .rel.text.net_set_ether
                0x000000000007db8c       0x10 arch/arm/cpu/armv7/start.o
 .rel.text.net_update_ether
                0x000000000007db9c        0x8 arch/arm/cpu/armv7/start.o
 .rel.text.net_set_ip_header
                0x000000000007dba4        0x8 arch/arm/cpu/armv7/start.o
 .rel.text.net_set_udp_header
                0x000000000007dbac        0x8 arch/arm/cpu/armv7/start.o
 .rel.text.net_send_ip_packet
                0x000000000007dbb4       0x40 arch/arm/cpu/armv7/start.o
 .rel.text.is_serverip_in_cmd
                0x000000000007dbf4        0x8 arch/arm/cpu/armv7/start.o
 .rel.text.net_check_prereq
                0x000000000007dbfc       0xd0 arch/arm/cpu/armv7/start.o
 .rel.text.net_auto_load
                0x000000000007dccc       0x28 arch/arm/cpu/armv7/start.o
 .rel.text.net_loop
                0x000000000007dcf4       0xc0 arch/arm/cpu/armv7/start.o
 .rel.text.net_parse_bootfile
                0x000000000007ddb4        0x8 arch/arm/cpu/armv7/start.o
 .rel.text.ip_to_string
                0x000000000007ddbc        0x8 arch/arm/cpu/armv7/start.o
 .rel.text.on_nvlan
                0x000000000007ddc4        0x8 arch/arm/cpu/armv7/start.o
 .rel.text.on_vlan
                0x000000000007ddcc        0x8 arch/arm/cpu/armv7/start.o
 .rel.text.rpc_lookup_reply
                0x000000000007ddd4       0x18 arch/arm/cpu/armv7/start.o
 .rel.text.nfs_mount_reply
                0x000000000007ddec       0x18 arch/arm/cpu/armv7/start.o
 .rel.text.nfs_umountall_reply
                0x000000000007de04       0x18 arch/arm/cpu/armv7/start.o
 .rel.text.nfs_lookup_reply
                0x000000000007de1c       0x30 arch/arm/cpu/armv7/start.o
 .rel.text.nfs_readlink_reply
                0x000000000007de4c       0x20 arch/arm/cpu/armv7/start.o
 .rel.text.nfs_read_reply
                0x000000000007de6c       0x30 arch/arm/cpu/armv7/start.o
 .rel.text.rpc_req
                0x000000000007de9c       0x40 arch/arm/cpu/armv7/start.o
 .rel.text.nfs_read_req
                0x000000000007dedc       0x18 arch/arm/cpu/armv7/start.o
 .rel.text.nfs_readlink_req
                0x000000000007def4       0x18 arch/arm/cpu/armv7/start.o
 .rel.text.nfs_umountall_req
                0x000000000007df0c       0x10 arch/arm/cpu/armv7/start.o
 .rel.text.nfs_lookup_req
                0x000000000007df1c       0x10 arch/arm/cpu/armv7/start.o
 .rel.text.nfs_send
                0x000000000007df2c       0x68 arch/arm/cpu/armv7/start.o
 .rel.text.nfs_handler
                0x000000000007df94       0xa8 arch/arm/cpu/armv7/start.o
 .rel.text.nfs_timeout_handler
                0x000000000007e03c       0x20 arch/arm/cpu/armv7/start.o
 .rel.text.nfs_start
                0x000000000007e05c       0xd0 arch/arm/cpu/armv7/start.o
 .rel.text.ping_timeout_handler
                0x000000000007e12c        0x8 arch/arm/cpu/armv7/start.o
 .rel.text.ping_start
                0x000000000007e134       0x58 arch/arm/cpu/armv7/start.o
 .rel.text.ping_receive
                0x000000000007e18c       0x18 arch/arm/cpu/armv7/start.o
 .rel.text.tftp_send
                0x000000000007e1a4       0xc8 arch/arm/cpu/armv7/start.o
 .rel.text.tftp_handler
                0x000000000007e26c      0x108 arch/arm/cpu/armv7/start.o
 .rel.text.tftp_timeout_handler
                0x000000000007e374       0x40 arch/arm/cpu/armv7/start.o
 .rel.text.tftp_start
                0x000000000007e3b4      0x178 arch/arm/cpu/armv7/start.o
 .rel.u_boot_list_2_env_clbk_2_ethaddr
                0x000000000007e52c       0x10 arch/arm/cpu/armv7/start.o
 .rel.u_boot_list_2_uclass_2_eth
                0x000000000007e53c       0x28 arch/arm/cpu/armv7/start.o
 .rel.u_boot_list_2_env_clbk_2_gatewayip
                0x000000000007e564       0x10 arch/arm/cpu/armv7/start.o
 .rel.u_boot_list_2_env_clbk_2_ipaddr
                0x000000000007e574       0x10 arch/arm/cpu/armv7/start.o
 .rel.u_boot_list_2_env_clbk_2_netmask
                0x000000000007e584       0x10 arch/arm/cpu/armv7/start.o
 .rel.u_boot_list_2_env_clbk_2_nvlan
                0x000000000007e594       0x10 arch/arm/cpu/armv7/start.o
 .rel.u_boot_list_2_env_clbk_2_serverip
                0x000000000007e5a4       0x10 arch/arm/cpu/armv7/start.o
 .rel.u_boot_list_2_env_clbk_2_vlan
                0x000000000007e5b4       0x10 arch/arm/cpu/armv7/start.o

.rel_dyn_end    0x000000000007e5c4        0x0
 *(.__rel_dyn_end)
 .__rel_dyn_end
                0x000000000007e5c4        0x0 arch/arm/lib/built-in.o

.end            0x000000000007e5c4        0x0
 *(.__end)
 .__end         0x000000000007e5c4        0x0 arch/arm/lib/built-in.o
                0x000000000007e5c4                _image_binary_end = .
                0x000000000007f000                . = ALIGN (0x1000)

.mmutable
 *(.mmutable)

.bss_start      0x0000000000073164        0x0
 *(.__bss_start)
 .__bss_start   0x0000000000073164        0x0 arch/arm/lib/built-in.o
                0x0000000000073164                __bss_start
                0x0000000000073164                __bss_base = .

.bss            0x0000000000073164    0x1a9b0
 *(.bss*)
 .bss.params    0x0000000000073164        0x4 arch/arm/lib/built-in.o
 .bss.model     0x0000000000073168        0x4 board/raspberrypi/rpi/built-in.o
 .bss.rev_scheme
                0x000000000007316c        0x4 board/raspberrypi/rpi/built-in.o
 .bss.rev_type  0x0000000000073170        0x4 board/raspberrypi/rpi/built-in.o
 .bss.revision  0x0000000000073174        0x4 board/raspberrypi/rpi/built-in.o
 .bss.bootefi_device_path
                0x0000000000073178        0x4 cmd/built-in.o
 .bss.bootefi_image_path
                0x000000000007317c        0x4 cmd/built-in.o
 .bss.data.8870
                0x0000000000073180      0x400 cmd/built-in.o
 .bss.working_fdt
                0x0000000000073580        0x4 cmd/built-in.o
                0x0000000000073580                working_fdt
 .bss.a_b       0x0000000000073584       0x18 cmd/built-in.o
 .bss.bin_start_address
                0x000000000007359c        0x4 cmd/built-in.o
 .bss.his_eol   0x00000000000735a0        0x1 cmd/built-in.o
 .bss.his_pad_char
                0x00000000000735a1        0x1 cmd/built-in.o
 *fill*         0x00000000000735a2        0x2 
 .bss.his_pad_count
                0x00000000000735a4        0x4 cmd/built-in.o
 .bss.his_quote
                0x00000000000735a8        0x1 cmd/built-in.o
 *fill*         0x00000000000735a9        0x3 
 .bss.k_data_escape
                0x00000000000735ac        0x4 cmd/built-in.o
 .bss.k_data_escape_saved
                0x00000000000735b0        0x4 cmd/built-in.o
 .bss.os_data_addr
                0x00000000000735b4        0x4 cmd/built-in.o
 .bss.os_data_addr_saved
                0x00000000000735b8        0x4 cmd/built-in.o
 .bss.os_data_char
                0x00000000000735bc        0x4 cmd/built-in.o
 .bss.os_data_init
                0x00000000000735c0        0x4 cmd/built-in.o
 .bss.os_data_state
                0x00000000000735c4        0x4 cmd/built-in.o
 .bss.os_data_state_saved
                0x00000000000735c8        0x4 cmd/built-in.o
 .bss.send_parms
                0x00000000000735cc       0x14 cmd/built-in.o
 .bss.send_ptr  0x00000000000735e0        0x4 cmd/built-in.o
 .bss.base_address
                0x00000000000735e4        0x4 cmd/built-in.o
 .bss.dp_last_addr
                0x00000000000735e8        0x4 cmd/built-in.o
 .bss.dp_last_size
                0x00000000000735ec        0x4 cmd/built-in.o
 .bss.mm_last_addr
                0x00000000000735f0        0x4 cmd/built-in.o
 .bss.mm_last_size
                0x00000000000735f4        0x4 cmd/built-in.o
 .bss.last_addr_hi
                0x00000000000735f8        0x8 cmd/built-in.o
 .bss.last_addr_lo
                0x0000000000073600        0x8 cmd/built-in.o
 .bss.last_data
                0x0000000000073608        0x8 cmd/built-in.o
 .bss.last_mask
                0x0000000000073610        0x4 cmd/built-in.o
 .bss.last_op   0x0000000000073614        0x4 cmd/built-in.o
 .bss.last_reg_hi
                0x0000000000073618        0x8 cmd/built-in.o
 .bss.last_reg_lo
                0x0000000000073620        0x8 cmd/built-in.o
 .bss.last_devad_hi
                0x0000000000073628        0x4 cmd/built-in.o
 .bss.last_devad_lo
                0x000000000007362c        0x4 cmd/built-in.o
 .bss.currdev   0x0000000000073630        0x4 cmd/built-in.o
 .bss.do_getfile
                0x0000000000073634        0x4 cmd/built-in.o
                0x0000000000073634                do_getfile
 .bss.is_pxe    0x0000000000073638        0x1 cmd/built-in.o
                0x0000000000073638                is_pxe
 *fill*         0x0000000000073639        0x3 
 .bss.fs_argv   0x000000000007363c       0x14 cmd/built-in.o
 .bss.buf.8974  0x0000000000073650       0x28 common/built-in.o
 .bss.do_repeat
                0x0000000000073678        0x4 common/built-in.o
 .bss.flag_repeat
                0x000000000007367c        0x4 common/built-in.o
 .bss.ifs       0x0000000000073680        0x4 common/built-in.o
 .bss.last_return_code
                0x0000000000073684        0x4 common/built-in.o
 .bss.map       0x0000000000073688      0x100 common/built-in.o
 .bss.the_command.8774
                0x0000000000073788      0x401 common/built-in.o
 *fill*         0x0000000000073b89        0x3 
 .bss.top_vars  0x0000000000073b8c        0x4 common/built-in.o
 .bss.stored_bootdelay
                0x0000000000073b90        0x4 common/built-in.o
 .bss.monitor_flash_len
                0x0000000000073b94        0x4 common/built-in.o
                0x0000000000073b94                monitor_flash_len
 .bss.images    0x0000000000073b98      0x130 common/built-in.o
                0x0000000000073b98                images
 .bss.current_mii
                0x0000000000073cc8        0x4 common/built-in.o
 .bss.mii_devs  0x0000000000073ccc        0x8 common/built-in.o
 .bss.usb_started
                0x0000000000073cd4        0x1 common/built-in.o
                0x0000000000073cd4                usb_started
 *fill*         0x0000000000073cd5        0x3 
 .bss.running.10257
                0x0000000000073cd8        0x4 common/built-in.o
 .bss.CBWTag    0x0000000000073cdc        0x4 common/built-in.o
 *fill*         0x0000000000073ce0       0x20 
 .bss.usb_ccb   0x0000000000073d00      0x100 common/built-in.o
 .bss.usb_max_devs
                0x0000000000073e00        0x4 common/built-in.o
 .bss.kbd_testc_tms
                0x0000000000073e04        0x4 common/built-in.o
 .bss.console_buffer
                0x0000000000073e08      0x401 common/built-in.o
                0x0000000000073e08                console_buffer
 *fill*         0x0000000000074209        0x3 
 .bss.hist_add_idx
                0x000000000007420c        0x4 common/built-in.o
 .bss.hist_lines
                0x0000000000074210     0x5014 common/built-in.o
 .bss.hist_list
                0x0000000000079224       0x50 common/built-in.o
 .bss.hist_max  0x0000000000079274        0x4 common/built-in.o
 .bss.hist_num  0x0000000000079278        0x4 common/built-in.o
 .bss.initted.8575
                0x000000000007927c        0x4 common/built-in.o
 .bss.cd_count  0x0000000000079280        0xc common/built-in.o
                0x0000000000079280                cd_count
 .bss.console_devices
                0x000000000007928c        0xc common/built-in.o
                0x000000000007928c                console_devices
 .bss.ctrlc_disabled
                0x0000000000079298        0x4 common/built-in.o
 .bss.ctrlc_was_pressed
                0x000000000007929c        0x4 common/built-in.o
 .bss.tstcdev   0x00000000000792a0        0x4 common/built-in.o
 .bss.current_mallinfo
                0x00000000000792a4       0x28 common/built-in.o
 .bss.max_sbrked_mem
                0x00000000000792cc        0x4 common/built-in.o
 .bss.max_total_mem
                0x00000000000792d0        0x4 common/built-in.o
 .bss.mem_malloc_brk
                0x00000000000792d4        0x4 common/built-in.o
                0x00000000000792d4                mem_malloc_brk
 .bss.mem_malloc_end
                0x00000000000792d8        0x4 common/built-in.o
                0x00000000000792d8                mem_malloc_end
 .bss.mem_malloc_start
                0x00000000000792dc        0x4 common/built-in.o
                0x00000000000792dc                mem_malloc_start
 .bss.top_pad   0x00000000000792e0        0x4 common/built-in.o
 .bss.devs      0x00000000000792e4       0x4c common/built-in.o
 .bss.stdio_devices
                0x0000000000079330        0xc common/built-in.o
                0x0000000000079330                stdio_devices
 .bss.env_complete_buf
                0x000000000007933c      0x200 common/built-in.o
 .bss.tmp_buf   0x000000000007953c      0x401 common/built-in.o
 *fill*         0x000000000007993d        0x3 
 .bss.xyz       0x0000000000079940      0x434 common/built-in.o
 *fill*         0x0000000000079d74        0xc 
 .bss.tmpbuf    0x0000000000079d80      0x800 disk/built-in.o
 .bss.name.8591
                0x000000000007a580       0x25 disk/built-in.o
 *fill*         0x000000000007a5a5        0x3 
 .bss.initialized.10356
                0x000000000007a5a8        0x4 drivers/built-in.o
 .bss.shadow.10333
                0x000000000007a5ac        0x4 drivers/built-in.o
 .bss.asynch_allowed
                0x000000000007a5b0        0x1 drivers/usb/host/built-in.o
 *fill*         0x000000000007a5b1        0x3 
 .bss.flags_list
                0x000000000007a5b4        0x4 env/built-in.o
 .bss.callback_list
                0x000000000007a5b8        0x4 env/built-in.o
 .bss.fs_dev_desc
                0x000000000007a5bc        0x4 fs/built-in.o
 .bss.fs_dev_part
                0x000000000007a5c0        0x4 fs/built-in.o
 .bss.fs_partition
                0x000000000007a5c4       0x78 fs/built-in.o
 .bss.fs_type   0x000000000007a63c        0x4 fs/built-in.o
 .bss.ext_fs    0x000000000007a640       0x48 fs/built-in.o
                0x000000000007a640                ext_fs
 .bss.ext4fs_file
                0x000000000007a688        0x4 fs/built-in.o
                0x000000000007a688                ext4fs_file
 .bss.ext4fs_indir1_block
                0x000000000007a68c        0x4 fs/built-in.o
                0x000000000007a68c                ext4fs_indir1_block
 .bss.ext4fs_indir1_size
                0x000000000007a690        0x4 fs/built-in.o
                0x000000000007a690                ext4fs_indir1_size
 .bss.ext4fs_indir2_block
                0x000000000007a694        0x4 fs/built-in.o
                0x000000000007a694                ext4fs_indir2_block
 .bss.ext4fs_indir2_size
                0x000000000007a698        0x4 fs/built-in.o
                0x000000000007a698                ext4fs_indir2_size
 .bss.ext4fs_indir3_block
                0x000000000007a69c        0x4 fs/built-in.o
                0x000000000007a69c                ext4fs_indir3_block
 .bss.ext4fs_indir3_size
                0x000000000007a6a0        0x4 fs/built-in.o
                0x000000000007a6a0                ext4fs_indir3_size
 .bss.ext4fs_root
                0x000000000007a6a4        0x4 fs/built-in.o
                0x000000000007a6a4                ext4fs_root
 .bss.symlinknest
                0x000000000007a6a8        0x4 fs/built-in.o
 .bss.part_info
                0x000000000007a6ac        0x4 fs/built-in.o
 .bss.part_offset
                0x000000000007a6b0        0x4 fs/built-in.o
                0x000000000007a6b0                part_offset
 .bss.cur_dev   0x000000000007a6b4        0x4 fs/built-in.o
 .bss.cur_part_info
                0x000000000007a6b8       0x78 fs/built-in.o
 *fill*         0x000000000007a730       0x10 
 .bss.tmpbuf_cluster
                0x000000000007a740    0x10000 fs/built-in.o
 .bss.total_sector
                0x000000000008a740        0x4 fs/built-in.o
 .bss.rs        0x000000000008a744        0x4 lib/built-in.o
 .bss.app_gd    0x000000000008a748        0x4 lib/built-in.o
 .bss.current_image
                0x000000000008a74c        0x4 lib/built-in.o
 .bss.efi_gd    0x000000000008a750        0x4 lib/built-in.o
 *fill*         0x000000000008a754        0x4 
 .bss.mono.11344
                0x000000000008a758        0x8 lib/built-in.o
 .bss.ret.11273
                0x000000000008a760        0x4 lib/built-in.o
 .bss.console_timer_event
                0x000000000008a764        0x4 lib/built-in.o
 .bss.key_available
                0x000000000008a768        0x1 lib/built-in.o
 *fill*         0x000000000008a769        0x3 
 .bss.next_key  0x000000000008a76c        0xc lib/built-in.o
 .bss.efi_memory_map_key
                0x000000000008a778        0x4 lib/built-in.o
                0x000000000008a778                efi_memory_map_key
 .bss.efi_root  0x000000000008a77c        0x4 lib/built-in.o
                0x000000000008a77c                efi_root
 .bss.efi_secure_boot
                0x000000000008a780        0x1 lib/built-in.o
 *fill*         0x000000000008a781        0x3 
 .bss.efi_secure_mode
                0x000000000008a784        0x4 lib/built-in.o
 .bss.efi_variables_list
                0x000000000008a788        0x4 lib/built-in.o
 .bss.efi_vendor_keys
                0x000000000008a78c        0x1 lib/built-in.o
 *fill*         0x000000000008a78d        0x3 
 .bss.watchdog_timer_event
                0x000000000008a790        0x4 lib/built-in.o
 .bss.efi_system_partition
                0x000000000008a794        0xc lib/built-in.o
                0x000000000008a794                efi_system_partition
 .bss.dhcp_ack  0x000000000008a7a0        0x4 lib/built-in.o
 .bss.network_timer_event
                0x000000000008a7a4        0x4 lib/built-in.o
 .bss.new_rx_packet
                0x000000000008a7a8        0x1 lib/built-in.o
 *fill*         0x000000000008a7a9        0x3 
 .bss.new_tx_packet
                0x000000000008a7ac        0x4 lib/built-in.o
 .bss.transmit_buffer
                0x000000000008a7b0        0x4 lib/built-in.o
 .bss.wait_for_packet
                0x000000000008a7b4        0x4 lib/built-in.o
 .bss.errno     0x000000000008a7b8        0x4 lib/built-in.o
                0x000000000008a7b8                errno
 .bss.local.11026
                0x000000000008a7bc       0x16 lib/built-in.o
 *fill*         0x000000000008a7d2        0x2 
 .bss.arp_tx_packet
                0x000000000008a7d4        0x4 net/built-in.o
                0x000000000008a7d4                arp_tx_packet
 .bss.arp_tx_packet_buf
                0x000000000008a7d8      0x640 net/built-in.o
 .bss.arp_wait_packet_ethaddr
                0x000000000008ae18        0x4 net/built-in.o
                0x000000000008ae18                arp_wait_packet_ethaddr
 .bss.arp_wait_timer_start
                0x000000000008ae1c        0x4 net/built-in.o
                0x000000000008ae1c                arp_wait_timer_start
 .bss.arp_wait_try
                0x000000000008ae20        0x4 net/built-in.o
                0x000000000008ae20                arp_wait_try
 .bss.arp_wait_tx_packet_size
                0x000000000008ae24        0x4 net/built-in.o
                0x000000000008ae24                arp_wait_tx_packet_size
 .bss.net_arp_wait_packet_ip
                0x000000000008ae28        0x4 net/built-in.o
                0x000000000008ae28                net_arp_wait_packet_ip
 .bss.net_arp_wait_reply_ip
                0x000000000008ae2c        0x4 net/built-in.o
 .bss.bootp_ids
                0x000000000008ae30       0x10 net/built-in.o
                0x000000000008ae30                bootp_ids
 .bss.bootp_num_ids
                0x000000000008ae40        0x4 net/built-in.o
                0x000000000008ae40                bootp_num_ids
 .bss.bootp_start
                0x000000000008ae44        0x4 net/built-in.o
                0x000000000008ae44                bootp_start
 .bss.bootp_timeout
                0x000000000008ae48        0x4 net/built-in.o
                0x000000000008ae48                bootp_timeout
 .bss.bootp_try
                0x000000000008ae4c        0x4 net/built-in.o
                0x000000000008ae4c                bootp_try
 .bss.dhcp_leasetime
                0x000000000008ae50        0x4 net/built-in.o
 .bss.dhcp_option_overload
                0x000000000008ae54        0x1 net/built-in.o
 *fill*         0x000000000008ae55        0x3 
 .bss.dhcp_server_ip
                0x000000000008ae58        0x4 net/built-in.o
 .bss.dhcp_state
                0x000000000008ae5c        0x4 net/built-in.o
 .bss.net_hostname
                0x000000000008ae60       0x20 net/built-in.o
                0x000000000008ae60                net_hostname
 .bss.net_nis_domain
                0x000000000008ae80       0x20 net/built-in.o
                0x000000000008ae80                net_nis_domain
 .bss.net_root_path
                0x000000000008aea0       0x40 net/built-in.o
                0x000000000008aea0                net_root_path
 .bss.time_taken_max
                0x000000000008aee0        0x4 net/built-in.o
 .bss.eth_errno
                0x000000000008aee4        0x4 net/built-in.o
 .bss.act.9746  0x000000000008aee8        0x4 net/built-in.o
 .bss.env_changed_id.9747
                0x000000000008aeec        0x4 net/built-in.o
 .bss.first_failed.9741
                0x000000000008aef0        0x4 net/built-in.o
 .bss.arp_packet_handler
                0x000000000008aef4        0x4 net/built-in.o
 .bss.net_boot_file_expected_size_in_blocks
                0x000000000008aef8        0x4 net/built-in.o
                0x000000000008aef8                net_boot_file_expected_size_in_blocks
 .bss.net_boot_file_name
                0x000000000008aefc      0x400 net/built-in.o
                0x000000000008aefc                net_boot_file_name
 .bss.net_boot_file_name_explicit
                0x000000000008b2fc        0x1 net/built-in.o
                0x000000000008b2fc                net_boot_file_name_explicit
 *fill*         0x000000000008b2fd        0x3 
 .bss.net_boot_file_size
                0x000000000008b300        0x4 net/built-in.o
                0x000000000008b300                net_boot_file_size
 .bss.net_busy_flag
                0x000000000008b304        0x4 net/built-in.o
                0x000000000008b304                net_busy_flag
 .bss.net_dev_exists
                0x000000000008b308        0x4 net/built-in.o
 .bss.net_dns_server
                0x000000000008b30c        0x4 net/built-in.o
                0x000000000008b30c                net_dns_server
 .bss.net_ethaddr
                0x000000000008b310        0x6 net/built-in.o
                0x000000000008b310                net_ethaddr
 *fill*         0x000000000008b316        0x2 
 .bss.net_gateway
                0x000000000008b318        0x4 net/built-in.o
                0x000000000008b318                net_gateway
 .bss.net_ip    0x000000000008b31c        0x4 net/built-in.o
                0x000000000008b31c                net_ip
 .bss.net_ip_id
                0x000000000008b320        0x4 net/built-in.o
 .bss.net_netmask
                0x000000000008b324        0x4 net/built-in.o
                0x000000000008b324                net_netmask
 .bss.net_pkt_buf
                0x000000000008b328     0x1e40 net/built-in.o
 .bss.net_restart_wrap
                0x000000000008d168        0x4 net/built-in.o
                0x000000000008d168                net_restart_wrap
 .bss.net_restarted
                0x000000000008d16c        0x4 net/built-in.o
 .bss.net_rx_packet
                0x000000000008d170        0x4 net/built-in.o
                0x000000000008d170                net_rx_packet
 .bss.net_rx_packet_len
                0x000000000008d174        0x4 net/built-in.o
                0x000000000008d174                net_rx_packet_len
 .bss.net_rx_packets
                0x000000000008d178       0x10 net/built-in.o
                0x000000000008d178                net_rx_packets
 .bss.net_server_ethaddr
                0x000000000008d188        0x6 net/built-in.o
                0x000000000008d188                net_server_ethaddr
 *fill*         0x000000000008d18e        0x2 
 .bss.net_server_ip
                0x000000000008d190        0x4 net/built-in.o
                0x000000000008d190                net_server_ip
 .bss.net_state
                0x000000000008d194        0x4 net/built-in.o
                0x000000000008d194                net_state
 .bss.net_try_count
                0x000000000008d198        0x4 net/built-in.o
 .bss.net_tx_packet
                0x000000000008d19c        0x4 net/built-in.o
                0x000000000008d19c                net_tx_packet
 .bss.push_packet
                0x000000000008d1a0        0x4 net/built-in.o
                0x000000000008d1a0                push_packet
 .bss.time_delta
                0x000000000008d1a4        0x4 net/built-in.o
 .bss.time_handler
                0x000000000008d1a8        0x4 net/built-in.o
 .bss.time_start
                0x000000000008d1ac        0x8 net/built-in.o
 .bss.udp_packet_handler
                0x000000000008d1b4        0x4 net/built-in.o
 .bss.dirfh     0x000000000008d1b8       0x20 net/built-in.o
 .bss.filefh    0x000000000008d1d8       0x40 net/built-in.o
 .bss.filefh3_length
                0x000000000008d218        0x4 net/built-in.o
 .bss.fs_mounted
                0x000000000008d21c        0x4 net/built-in.o
 .bss.nfs_download_state
                0x000000000008d220        0x4 net/built-in.o
 .bss.nfs_filename
                0x000000000008d224        0x4 net/built-in.o
 .bss.nfs_len   0x000000000008d228        0x4 net/built-in.o
 .bss.nfs_our_port
                0x000000000008d22c        0x4 net/built-in.o
 .bss.nfs_path  0x000000000008d230        0x4 net/built-in.o
 .bss.nfs_path_buff
                0x000000000008d234      0x800 net/built-in.o
 .bss.nfs_server_ip
                0x000000000008da34        0x4 net/built-in.o
 .bss.nfs_server_mount_port
                0x000000000008da38        0x4 net/built-in.o
 .bss.nfs_server_port
                0x000000000008da3c        0x4 net/built-in.o
 .bss.nfs_state
                0x000000000008da40        0x4 net/built-in.o
 .bss.nfs_timeout_count
                0x000000000008da44        0x4 net/built-in.o
 .bss.rpc_id    0x000000000008da48        0x4 net/built-in.o
 .bss.net_ping_ip
                0x000000000008da4c        0x4 net/built-in.o
                0x000000000008da4c                net_ping_ip
 .bss.ping_seq_number
                0x000000000008da50        0x2 net/built-in.o
 .bss.default_filename
                0x000000000008da52        0xd net/built-in.o
 *fill*         0x000000000008da5f        0x1 
 .bss.tftp_block_wrap
                0x000000000008da60        0x4 net/built-in.o
 .bss.tftp_block_wrap_offset
                0x000000000008da64        0x4 net/built-in.o
 .bss.tftp_cur_block
                0x000000000008da68        0x4 net/built-in.o
 .bss.tftp_filename
                0x000000000008da6c       0x80 net/built-in.o
 .bss.tftp_load_addr
                0x000000000008daec        0x4 net/built-in.o
 .bss.tftp_load_size
                0x000000000008daf0        0x4 net/built-in.o
 .bss.tftp_our_port
                0x000000000008daf4        0x4 net/built-in.o
 .bss.tftp_prev_block
                0x000000000008daf8        0x4 net/built-in.o
 .bss.tftp_remote_ip
                0x000000000008dafc        0x4 net/built-in.o
 .bss.tftp_remote_port
                0x000000000008db00        0x4 net/built-in.o
 .bss.tftp_state
                0x000000000008db04        0x4 net/built-in.o
 .bss.tftp_tsize
                0x000000000008db08        0x4 net/built-in.o
 .bss.tftp_tsize_num_hash
                0x000000000008db0c        0x2 net/built-in.o
 *fill*         0x000000000008db0e        0x2 
 .bss.timeout_count
                0x000000000008db10        0x4 net/built-in.o
                0x000000000008db14                . = ALIGN (0x4)
                0x000000000008db14                __bss_limit = .

.bss_end        0x000000000008db14        0x0
 *(.__bss_end)
 .__bss_end     0x000000000008db14        0x0 arch/arm/lib/built-in.o
                0x000000000008db14                __bss_end

.dynsym         0x000000000007e5c4       0x30
 *(.dynsym)
 .dynsym        0x000000000007e5c4       0x30 arch/arm/cpu/armv7/start.o

.dynbss         0x000000000007e5f4        0x0
 *(.dynbss)
 .dynbss        0x000000000007e5f4        0x0 arch/arm/cpu/armv7/start.o

.dynstr         0x000000000007e5f4        0x1
 *(.dynstr*)
 .dynstr        0x000000000007e5f4        0x1 arch/arm/cpu/armv7/start.o

.dynamic        0x000000000007e5f8       0x90
 *(.dynamic*)
 .dynamic       0x000000000007e5f8       0x90 arch/arm/cpu/armv7/start.o
                0x000000000007e5f8                _DYNAMIC

.plt            0x000000000007e688        0x0
 *(.plt*)
 .plt           0x000000000007e688        0x0 arch/arm/cpu/armv7/start.o

.interp
 *(.interp*)

.gnu.hash       0x000000000007e688       0x18
 *(.gnu.hash)
 .gnu.hash      0x000000000007e688       0x18 arch/arm/cpu/armv7/start.o

.gnu            0x000000000007e6a0        0x0
 *(.gnu*)
 .gnu.version_d
                0x000000000007e6a0        0x0 arch/arm/cpu/armv7/start.o
 .gnu.version   0x000000000007e6a0        0x0 arch/arm/cpu/armv7/start.o
 .gnu.version_r
                0x000000000007e6a0        0x0 arch/arm/cpu/armv7/start.o

.ARM.exidx
 *(.ARM.exidx*)

.gnu.linkonce.armexidx
 *(.gnu.linkonce.armexidx.*)
LOAD arch/arm/cpu/armv7/start.o
START GROUP
LOAD arch/arm/cpu/built-in.o
LOAD arch/arm/cpu/armv7/built-in.o
LOAD arch/arm/lib/built-in.o
LOAD arch/arm/mach-bcm283x/built-in.o
LOAD board/raspberrypi/rpi/built-in.o
LOAD cmd/built-in.o
LOAD common/built-in.o
LOAD disk/built-in.o
LOAD drivers/built-in.o
LOAD drivers/dma/built-in.o
LOAD drivers/gpio/built-in.o
LOAD drivers/i2c/built-in.o
LOAD drivers/net/built-in.o
LOAD drivers/net/phy/built-in.o
LOAD drivers/power/built-in.o
LOAD drivers/power/battery/built-in.o
LOAD drivers/power/domain/built-in.o
LOAD drivers/power/fuel_gauge/built-in.o
LOAD drivers/power/mfd/built-in.o
LOAD drivers/power/pmic/built-in.o
LOAD drivers/power/regulator/built-in.o
LOAD drivers/serial/built-in.o
LOAD drivers/spi/built-in.o
LOAD drivers/usb/cdns3/built-in.o
LOAD drivers/usb/common/built-in.o
LOAD drivers/usb/dwc3/built-in.o
LOAD drivers/usb/emul/built-in.o
LOAD drivers/usb/eth/built-in.o
LOAD drivers/usb/host/built-in.o
LOAD drivers/usb/musb-new/built-in.o
LOAD drivers/usb/musb/built-in.o
LOAD drivers/usb/phy/built-in.o
LOAD drivers/usb/ulpi/built-in.o
LOAD dts/built-in.o
LOAD env/built-in.o
LOAD fs/built-in.o
LOAD lib/built-in.o
LOAD net/built-in.o
END GROUP
LOAD arch/arm/lib/eabi_compat.o
LOAD arch/arm/lib/lib.a
OUTPUT(u-boot elf32-littlearm)
LOAD linker stubs

.ARM.attributes
                0x0000000000000000       0x2d
 .ARM.attributes
                0x0000000000000000       0x21 arch/arm/cpu/armv7/start.o
 .ARM.attributes
                0x0000000000000021       0x2f arch/arm/cpu/armv7/built-in.o
 .ARM.attributes
                0x0000000000000050       0x2d arch/arm/lib/built-in.o
 .ARM.attributes
                0x000000000000007d       0x2d arch/arm/mach-bcm283x/built-in.o
 .ARM.attributes
                0x00000000000000aa       0x2f board/raspberrypi/rpi/built-in.o
 .ARM.attributes
                0x00000000000000d9       0x2d cmd/built-in.o
 .ARM.attributes
                0x0000000000000106       0x2d common/built-in.o
 .ARM.attributes
                0x0000000000000133       0x2d disk/built-in.o
 .ARM.attributes
                0x0000000000000160       0x31 drivers/built-in.o
 .ARM.attributes
                0x0000000000000191       0x2d drivers/gpio/built-in.o
 .ARM.attributes
                0x00000000000001be       0x2d drivers/net/phy/built-in.o
 .ARM.attributes
                0x00000000000001eb       0x2d drivers/serial/built-in.o
 .ARM.attributes
                0x0000000000000218       0x2d drivers/usb/eth/built-in.o
 .ARM.attributes
                0x0000000000000245       0x2d drivers/usb/host/built-in.o
 .ARM.attributes
                0x0000000000000272       0x21 dts/built-in.o
 .ARM.attributes
                0x0000000000000293       0x2d env/built-in.o
 .ARM.attributes
                0x00000000000002c0       0x2d fs/built-in.o
 .ARM.attributes
                0x00000000000002ed       0x31 lib/built-in.o
 .ARM.attributes
                0x000000000000031e       0x2d net/built-in.o
 .ARM.attributes
                0x000000000000034b       0x21 arch/arm/lib/lib.a(lib1funcs.o)
 .ARM.attributes
                0x000000000000036c       0x2d arch/arm/lib/lib.a(div0.o)

.comment        0x0000000000000000       0x2d
 .comment       0x0000000000000000       0x2d arch/arm/cpu/armv7/built-in.o
                                         0xb8 (size before relaxing)
 .comment       0x000000000000002d      0x1cc arch/arm/lib/built-in.o
 .comment       0x000000000000002d       0xe6 arch/arm/mach-bcm283x/built-in.o
 .comment       0x000000000000002d       0x2e board/raspberrypi/rpi/built-in.o
 .comment       0x000000000000002d      0x75e cmd/built-in.o
 .comment       0x000000000000002d      0x5ee common/built-in.o
 .comment       0x000000000000002d       0xb8 disk/built-in.o
 .comment       0x000000000000002d      0x64a drivers/built-in.o
 .comment       0x000000000000002d       0x5c drivers/gpio/built-in.o
 .comment       0x000000000000002d       0x2e drivers/net/phy/built-in.o
 .comment       0x000000000000002d       0xb8 drivers/serial/built-in.o
 .comment       0x000000000000002d       0xb8 drivers/usb/eth/built-in.o
 .comment       0x000000000000002d       0x5c drivers/usb/host/built-in.o
 .comment       0x000000000000002d      0x114 env/built-in.o
 .comment       0x000000000000002d      0x114 fs/built-in.o
 .comment       0x000000000000002d      0xc66 lib/built-in.o
 .comment       0x000000000000002d      0x170 net/built-in.o
 .comment       0x000000000000002d       0x2e arch/arm/lib/lib.a(div0.o)

.note.GNU-stack
                0x0000000000000000        0x0
 .note.GNU-stack
                0x0000000000000000        0x0 arch/arm/cpu/armv7/built-in.o
 .note.GNU-stack
                0x0000000000000000        0x0 arch/arm/lib/built-in.o
 .note.GNU-stack
                0x0000000000000000        0x0 arch/arm/mach-bcm283x/built-in.o
 .note.GNU-stack
                0x0000000000000000        0x0 board/raspberrypi/rpi/built-in.o
 .note.GNU-stack
                0x0000000000000000        0x0 cmd/built-in.o
 .note.GNU-stack
                0x0000000000000000        0x0 common/built-in.o
 .note.GNU-stack
                0x0000000000000000        0x0 disk/built-in.o
 .note.GNU-stack
                0x0000000000000000        0x0 drivers/built-in.o
 .note.GNU-stack
                0x0000000000000000        0x0 drivers/gpio/built-in.o
 .note.GNU-stack
                0x0000000000000000        0x0 drivers/net/phy/built-in.o
 .note.GNU-stack
                0x0000000000000000        0x0 drivers/serial/built-in.o
 .note.GNU-stack
                0x0000000000000000        0x0 drivers/usb/eth/built-in.o
 .note.GNU-stack
                0x0000000000000000        0x0 drivers/usb/host/built-in.o
 .note.GNU-stack
                0x0000000000000000        0x0 env/built-in.o
 .note.GNU-stack
                0x0000000000000000        0x0 fs/built-in.o
 .note.GNU-stack
                0x0000000000000000        0x0 lib/built-in.o
 .note.GNU-stack
                0x0000000000000000        0x0 net/built-in.o
 .note.GNU-stack
                0x0000000000000000        0x0 arch/arm/lib/lib.a(div0.o)

.debug_line     0x0000000000000000    0x7c69d
 .debug_line    0x0000000000000000       0x90 arch/arm/cpu/armv7/start.o
 .debug_line    0x0000000000000090      0xac2 arch/arm/cpu/armv7/built-in.o
 .debug_line    0x0000000000000b52     0x2647 arch/arm/lib/built-in.o
 .debug_line    0x0000000000003199      0xffb arch/arm/mach-bcm283x/built-in.o
 .debug_line    0x0000000000004194      0x6a5 board/raspberrypi/rpi/built-in.o
 .debug_line    0x0000000000004839     0xf42b cmd/built-in.o
 .debug_line    0x0000000000013c64    0x14939 common/built-in.o
 .debug_line    0x000000000002859d     0x2e51 disk/built-in.o
 .debug_line    0x000000000002b3ee    0x1373a drivers/built-in.o
 .debug_line    0x000000000003eb28     0x190a drivers/gpio/built-in.o
 .debug_line    0x0000000000040432     0x154c drivers/net/phy/built-in.o
 .debug_line    0x000000000004197e     0x16ba drivers/serial/built-in.o
 .debug_line    0x0000000000043038     0x26e0 drivers/usb/eth/built-in.o
 .debug_line    0x0000000000045718     0x245d drivers/usb/host/built-in.o
 .debug_line    0x0000000000047b75     0x1f2d env/built-in.o
 .debug_line    0x0000000000049aa2     0x65ac fs/built-in.o
 .debug_line    0x000000000005004e    0x26563 lib/built-in.o
 .debug_line    0x00000000000765b1     0x5f9a net/built-in.o
 .debug_line    0x000000000007c54b       0xf1 arch/arm/lib/lib.a(lib1funcs.o)
 .debug_line    0x000000000007c63c       0x61 arch/arm/lib/lib.a(div0.o)

.debug_info     0x0000000000000000   0x20b758
 .debug_info    0x0000000000000000       0x26 arch/arm/cpu/armv7/start.o
 .debug_info    0x0000000000000026     0x32ac arch/arm/cpu/armv7/built-in.o
 .debug_info    0x00000000000032d2     0xd2db arch/arm/lib/built-in.o
 .debug_info    0x00000000000105ad     0x6e41 arch/arm/mach-bcm283x/built-in.o
 .debug_info    0x00000000000173ee     0x431e board/raspberrypi/rpi/built-in.o
 .debug_info    0x000000000001b70c    0x47999 cmd/built-in.o
 .debug_info    0x00000000000630a5    0x4fa8e common/built-in.o
 .debug_info    0x00000000000b2b33     0x937f disk/built-in.o
 .debug_info    0x00000000000bbeb2    0x4f6d7 drivers/built-in.o
 .debug_info    0x000000000010b589     0x5ddb drivers/gpio/built-in.o
 .debug_info    0x0000000000111364     0x3a7a drivers/net/phy/built-in.o
 .debug_info    0x0000000000114dde     0x86b3 drivers/serial/built-in.o
 .debug_info    0x000000000011d491     0xc5da drivers/usb/eth/built-in.o
 .debug_info    0x0000000000129a6b     0x9658 drivers/usb/host/built-in.o
 .debug_info    0x00000000001330c3     0x8b2b env/built-in.o
 .debug_info    0x000000000013bbee    0x14448 fs/built-in.o
 .debug_info    0x0000000000150036    0xa4d31 lib/built-in.o
 .debug_info    0x00000000001f4d67    0x1697d net/built-in.o
 .debug_info    0x000000000020b6e4       0x22 arch/arm/lib/lib.a(lib1funcs.o)
 .debug_info    0x000000000020b706       0x52 arch/arm/lib/lib.a(div0.o)

.debug_abbrev   0x0000000000000000    0x3dca4
 .debug_abbrev  0x0000000000000000       0x14 arch/arm/cpu/armv7/start.o
 .debug_abbrev  0x0000000000000014      0xa6e arch/arm/cpu/armv7/built-in.o
 .debug_abbrev  0x0000000000000a82     0x1dc8 arch/arm/lib/built-in.o
 .debug_abbrev  0x000000000000284a      0xde2 arch/arm/mach-bcm283x/built-in.o
 .debug_abbrev  0x000000000000362c      0x512 board/raspberrypi/rpi/built-in.o
 .debug_abbrev  0x0000000000003b3e     0x9bcc cmd/built-in.o
 .debug_abbrev  0x000000000000d70a     0x9aa4 common/built-in.o
 .debug_abbrev  0x00000000000171ae     0x168b disk/built-in.o
 .debug_abbrev  0x0000000000018839     0x9e92 drivers/built-in.o
 .debug_abbrev  0x00000000000226cb      0xa98 drivers/gpio/built-in.o
 .debug_abbrev  0x0000000000023163      0x69e drivers/net/phy/built-in.o
 .debug_abbrev  0x0000000000023801     0x120c drivers/serial/built-in.o
 .debug_abbrev  0x0000000000024a0d     0x1554 drivers/usb/eth/built-in.o
 .debug_abbrev  0x0000000000025f61      0xd46 drivers/usb/host/built-in.o
 .debug_abbrev  0x0000000000026ca7     0x17ac env/built-in.o
 .debug_abbrev  0x0000000000028453     0x1fc9 fs/built-in.o
 .debug_abbrev  0x000000000002a41c    0x10deb lib/built-in.o
 .debug_abbrev  0x000000000003b207     0x2a3d net/built-in.o
 .debug_abbrev  0x000000000003dc44       0x12 arch/arm/lib/lib.a(lib1funcs.o)
 .debug_abbrev  0x000000000003dc56       0x4e arch/arm/lib/lib.a(div0.o)

.debug_aranges  0x0000000000000000     0x5da0
 .debug_aranges
                0x0000000000000000       0x20 arch/arm/cpu/armv7/start.o
 .debug_aranges
                0x0000000000000020      0x120 arch/arm/cpu/armv7/built-in.o
 .debug_aranges
                0x0000000000000140      0x338 arch/arm/lib/built-in.o
 .debug_aranges
                0x0000000000000478       0xf8 arch/arm/mach-bcm283x/built-in.o
 .debug_aranges
                0x0000000000000570       0x68 board/raspberrypi/rpi/built-in.o
 .debug_aranges
                0x00000000000005d8      0x9f0 cmd/built-in.o
 .debug_aranges
                0x0000000000000fc8      0xf68 common/built-in.o
 .debug_aranges
                0x0000000000001f30      0x1c0 disk/built-in.o
 .debug_aranges
                0x00000000000020f0      0xf48 drivers/built-in.o
 .debug_aranges
                0x0000000000003038      0x1e0 drivers/gpio/built-in.o
 .debug_aranges
                0x0000000000003218       0xd0 drivers/net/phy/built-in.o
 .debug_aranges
                0x00000000000032e8      0x178 drivers/serial/built-in.o
 .debug_aranges
                0x0000000000003460      0x1d8 drivers/usb/eth/built-in.o
 .debug_aranges
                0x0000000000003638      0x148 drivers/usb/host/built-in.o
 .debug_aranges
                0x0000000000003780      0x1b0 env/built-in.o
 .debug_aranges
                0x0000000000003930      0x3d0 fs/built-in.o
 .debug_aranges
                0x0000000000003d00     0x1c38 lib/built-in.o
 .debug_aranges
                0x0000000000005938      0x400 net/built-in.o
 .debug_aranges
                0x0000000000005d38       0x48 arch/arm/lib/lib.a(lib1funcs.o)
 .debug_aranges
                0x0000000000005d80       0x20 arch/arm/lib/lib.a(div0.o)

.debug_str      0x0000000000000000    0x1d728
 .debug_str     0x0000000000000000       0x4c arch/arm/cpu/armv7/start.o
 .debug_str     0x000000000000004c      0xbbb arch/arm/cpu/armv7/built-in.o
                                       0x2b43 (size before relaxing)
 .debug_str     0x0000000000000c07     0x2e0a arch/arm/lib/built-in.o
                                       0xbb7d (size before relaxing)
 .debug_str     0x0000000000003a11      0x4c2 arch/arm/mach-bcm283x/built-in.o
                                       0x5743 (size before relaxing)
 .debug_str     0x0000000000003ed3      0x42f board/raspberrypi/rpi/built-in.o
                                       0x306e (size before relaxing)
 .debug_str     0x0000000000004302     0x4c1c cmd/built-in.o
                                      0x36c97 (size before relaxing)
 .debug_str     0x0000000000008f1e     0x4514 common/built-in.o
                                      0x36541 (size before relaxing)
 .debug_str     0x000000000000d432      0xc24 disk/built-in.o
                                       0x556d (size before relaxing)
 .debug_str     0x000000000000e056     0x3c9f drivers/built-in.o
                                      0x3544c (size before relaxing)
 .debug_str     0x0000000000011cf5      0x599 drivers/gpio/built-in.o
                                       0x352f (size before relaxing)
 .debug_str     0x000000000001228e      0x258 drivers/net/phy/built-in.o
                                       0x1c7a (size before relaxing)
 .debug_str     0x00000000000124e6      0x6e3 drivers/serial/built-in.o
                                       0x6475 (size before relaxing)
 .debug_str     0x0000000000012bc9      0x897 drivers/usb/eth/built-in.o
                                       0x78a8 (size before relaxing)
 .debug_str     0x0000000000013460      0xa79 drivers/usb/host/built-in.o
                                       0x4558 (size before relaxing)
 .debug_str     0x0000000000013ed9      0x715 env/built-in.o
                                       0x79f7 (size before relaxing)
 .debug_str     0x00000000000145ee     0x1150 fs/built-in.o
                                       0xaec1 (size before relaxing)
 .debug_str     0x000000000001573e     0x6c5e lib/built-in.o
                                      0x66429 (size before relaxing)
 .debug_str     0x000000000001c39c     0x1358 net/built-in.o
                                      0x10b05 (size before relaxing)
 .debug_str     0x000000000001d6f4       0x19 arch/arm/lib/lib.a(lib1funcs.o)
                                         0x4a (size before relaxing)
 .debug_str     0x000000000001d70d       0x1b arch/arm/lib/lib.a(div0.o)
                                        0x1db (size before relaxing)

.debug_frame    0x0000000000000000    0x1146c
 .debug_frame   0x0000000000000000      0x1e8 arch/arm/cpu/armv7/built-in.o
 .debug_frame   0x00000000000001e8      0x4c0 arch/arm/lib/built-in.o
 .debug_frame   0x00000000000006a8      0x1f8 arch/arm/mach-bcm283x/built-in.o
 .debug_frame   0x00000000000008a0       0xb8 board/raspberrypi/rpi/built-in.o
 .debug_frame   0x0000000000000958     0x1b80 cmd/built-in.o
 .debug_frame   0x00000000000024d8     0x301c common/built-in.o
 .debug_frame   0x00000000000054f4      0x690 disk/built-in.o
 .debug_frame   0x0000000000005b84     0x2ba0 drivers/built-in.o
 .debug_frame   0x0000000000008724      0x66c drivers/gpio/built-in.o
 .debug_frame   0x0000000000008d90      0x280 drivers/net/phy/built-in.o
 .debug_frame   0x0000000000009010      0x37c drivers/serial/built-in.o
 .debug_frame   0x000000000000938c      0x614 drivers/usb/eth/built-in.o
 .debug_frame   0x00000000000099a0      0x448 drivers/usb/host/built-in.o
 .debug_frame   0x0000000000009de8      0x4c0 env/built-in.o
 .debug_frame   0x000000000000a2a8      0xdc4 fs/built-in.o
 .debug_frame   0x000000000000b06c     0x56e4 lib/built-in.o
 .debug_frame   0x0000000000010750      0xcf4 net/built-in.o
 .debug_frame   0x0000000000011444       0x28 arch/arm/lib/lib.a(div0.o)

.debug_loc      0x0000000000000000    0xbcb61
 .debug_loc     0x0000000000000000      0x583 arch/arm/cpu/armv7/built-in.o
 .debug_loc     0x0000000000000583     0x1344 arch/arm/lib/built-in.o
 .debug_loc     0x00000000000018c7      0x874 arch/arm/mach-bcm283x/built-in.o
 .debug_loc     0x000000000000213b      0x229 board/raspberrypi/rpi/built-in.o
 .debug_loc     0x0000000000002364    0x12ede cmd/built-in.o
 .debug_loc     0x0000000000015242    0x199a5 common/built-in.o
 .debug_loc     0x000000000002ebe7     0x36cf disk/built-in.o
 .debug_loc     0x00000000000322b6    0x17410 drivers/built-in.o
 .debug_loc     0x00000000000496c6     0x239b drivers/gpio/built-in.o
 .debug_loc     0x000000000004ba61     0x2568 drivers/net/phy/built-in.o
 .debug_loc     0x000000000004dfc9     0x17a0 drivers/serial/built-in.o
 .debug_loc     0x000000000004f769     0x34b1 drivers/usb/eth/built-in.o
 .debug_loc     0x0000000000052c1a     0x511b drivers/usb/host/built-in.o
 .debug_loc     0x0000000000057d35     0x1c05 env/built-in.o
 .debug_loc     0x000000000005993a     0x970c fs/built-in.o
 .debug_loc     0x0000000000063046    0x535e1 lib/built-in.o
 .debug_loc     0x00000000000b6627     0x653a net/built-in.o

.debug_ranges   0x0000000000000000    0x11228
 .debug_ranges  0x0000000000000000      0x120 arch/arm/cpu/armv7/built-in.o
 .debug_ranges  0x0000000000000120      0x528 arch/arm/lib/built-in.o
 .debug_ranges  0x0000000000000648      0x110 arch/arm/mach-bcm283x/built-in.o
 .debug_ranges  0x0000000000000758       0xb0 board/raspberrypi/rpi/built-in.o
 .debug_ranges  0x0000000000000808     0x1bb8 cmd/built-in.o
 .debug_ranges  0x00000000000023c0     0x2b38 common/built-in.o
 .debug_ranges  0x0000000000004ef8      0x5b8 disk/built-in.o
 .debug_ranges  0x00000000000054b0     0x3158 drivers/built-in.o
 .debug_ranges  0x0000000000008608      0x318 drivers/gpio/built-in.o
 .debug_ranges  0x0000000000008920      0x4e0 drivers/net/phy/built-in.o
 .debug_ranges  0x0000000000008e00      0x288 drivers/serial/built-in.o
 .debug_ranges  0x0000000000009088      0x410 drivers/usb/eth/built-in.o
 .debug_ranges  0x0000000000009498      0x770 drivers/usb/host/built-in.o
 .debug_ranges  0x0000000000009c08      0x350 env/built-in.o
 .debug_ranges  0x0000000000009f58      0xda0 fs/built-in.o
 .debug_ranges  0x000000000000acf8     0x5730 lib/built-in.o
 .debug_ranges  0x0000000000010428      0xdb0 net/built-in.o
 .debug_ranges  0x00000000000111d8       0x40 arch/arm/lib/lib.a(lib1funcs.o)
 .debug_ranges  0x0000000000011218       0x10 arch/arm/lib/lib.a(div0.o)
